   1               		.file	"Pipe.c"
   2               	__SREG__ = 0x3f
   3               	__SP_H__ = 0x3e
   4               	__SP_L__ = 0x3d
   5               	__CCP__  = 0x34
   6               	__tmp_reg__ = 0
   7               	__zero_reg__ = 1
  15               	.Ltext0:
  16               		.section	.text.Pipe_ConfigurePipe,"ax",@progbits
  17               	.global	Pipe_ConfigurePipe
  19               	Pipe_ConfigurePipe:
  20               	.LFB32:
  21               	.LSM0:
  22               	.LVL0:
  23 0000 EF92      		push r14
  24               	.LVL1:
  25 0002 0F93      		push r16
  26               	.LVL2:
  27 0004 1F93      		push r17
  28               	/* prologue: function */
  29               	/* frame size = 0 */
  30 0006 9E2D      		mov r25,r14
  31               	.LVL3:
  32               	.LSM1:
  33 0008 8093 A700 		sts 167,r24
  34               	.LSM2:
  35 000c 8091 A900 		lds r24,169
  36               	.LVL4:
  37 0010 8160      		ori r24,lo8(1)
  38 0012 8093 A900 		sts 169,r24
  39               	.LSM3:
  40 0016 1092 AB00 		sts 171,__zero_reg__
  41               	.LSM4:
  42 001a 6295      		swap r22
  43               	.LVL5:
  44 001c 660F      		lsl r22
  45 001e 660F      		lsl r22
  46 0020 607C      		andi r22,lo8(-64)
  47 0022 642B      		or r22,r20
  48 0024 2F70      		andi r18,lo8(15)
  49               	.LVL6:
  50 0026 622B      		or r22,r18
  51 0028 6093 AA00 		sts 170,r22
  52               	.LBB47:
  53               	.LBB48:
  54               	.LSM5:
  55 002c 0930      		cpi r16,9
  56 002e 1105      		cpc r17,__zero_reg__
  57               	.LVL7:
  58 0030 00F4      		brsh .L2
  59               	.LVL8:
  60 0032 80E0      		ldi r24,lo8(0)
  61 0034 00C0      		rjmp .L3
  62               	.L2:
  63               	.LSM6:
  64 0036 0131      		cpi r16,17
  65 0038 1105      		cpc r17,__zero_reg__
  66 003a 00F4      		brsh .L4
  67 003c 80E1      		ldi r24,lo8(16)
  68 003e 00C0      		rjmp .L3
  69               	.L4:
  70               	.LSM7:
  71 0040 0132      		cpi r16,33
  72 0042 1105      		cpc r17,__zero_reg__
  73 0044 00F4      		brsh .L5
  74 0046 80E2      		ldi r24,lo8(32)
  75 0048 00C0      		rjmp .L3
  76               	.L5:
  77               	.LSM8:
  78 004a 0134      		cpi r16,65
  79 004c 1105      		cpc r17,__zero_reg__
  80 004e 00F4      		brsh .L6
  81 0050 80E3      		ldi r24,lo8(48)
  82 0052 00C0      		rjmp .L3
  83               	.L6:
  84               	.LSM9:
  85 0054 0138      		cpi r16,129
  86 0056 1105      		cpc r17,__zero_reg__
  87 0058 00F0      		brlo .L7
  88 005a 80E5      		ldi r24,lo8(80)
  89 005c 00C0      		rjmp .L3
  90               	.L7:
  91 005e 80E4      		ldi r24,lo8(64)
  92               	.L3:
  93               	.LBE48:
  94               	.LBE47:
  95               	.LSM10:
  96 0060 9260      		ori r25,lo8(2)
  97 0062 892B      		or r24,r25
  98 0064 8093 AB00 		sts 171,r24
  99               	.LSM11:
 100 0068 8091 A900 		lds r24,169
 101 006c 8062      		ori r24,lo8(32)
 102 006e 8093 A900 		sts 169,r24
 103               	.LSM12:
 104 0072 8091 AC00 		lds r24,172
 105               	.LSM13:
 106 0076 881F      		rol r24
 107 0078 8827      		clr r24
 108 007a 881F      		rol r24
 109               	/* epilogue start */
 110 007c 1F91      		pop r17
 111 007e 0F91      		pop r16
 112               	.LVL9:
 113 0080 EF90      		pop r14
 114 0082 0895      		ret
 115               	.LFE32:
 117               		.section	.text.Pipe_ClearPipes,"ax",@progbits
 118               	.global	Pipe_ClearPipes
 120               	Pipe_ClearPipes:
 121               	.LFB33:
 122               	.LSM14:
 123               	/* prologue: function */
 124               	/* frame size = 0 */
 125               	.LSM15:
 126 0000 1092 F800 		sts 248,__zero_reg__
 127 0004 20E0      		ldi r18,lo8(0)
 128 0006 30E0      		ldi r19,hi8(0)
 129               	.LBB49:
 130               	.LSM16:
 131 0008 41E0      		ldi r20,lo8(1)
 132 000a 50E0      		ldi r21,hi8(1)
 133               	.L11:
 134 000c CA01      		movw r24,r20
 135 000e 022E      		mov r0,r18
 136 0010 00C0      		rjmp 2f
 137 0012 880F      	1:	lsl r24
 138 0014 991F      		rol r25
 139 0016 0A94      	2:	dec r0
 140 0018 02F4      		brpl 1b
 141 001a 8093 A800 		sts 168,r24
 142 001e 1092 A800 		sts 168,__zero_reg__
 143               	.LSM17:
 144 0022 2093 A700 		sts 167,r18
 145               	.LSM18:
 146 0026 1092 AE00 		sts 174,__zero_reg__
 147               	.LSM19:
 148 002a 1092 A600 		sts 166,__zero_reg__
 149               	.LSM20:
 150 002e 8091 A600 		lds r24,166
 151 0032 8F7E      		andi r24,lo8(-17)
 152 0034 8093 A600 		sts 166,r24
 153               	.LSM21:
 154 0038 1092 F500 		sts 245,__zero_reg__
 155               	.LSM22:
 156 003c 8091 AB00 		lds r24,171
 157 0040 8D7F      		andi r24,lo8(-3)
 158 0042 8093 AB00 		sts 171,r24
 159               	.LSM23:
 160 0046 8091 A900 		lds r24,169
 161 004a 8E7F      		andi r24,lo8(-2)
 162 004c 8093 A900 		sts 169,r24
 163 0050 2F5F      		subi r18,lo8(-(1))
 164 0052 3F4F      		sbci r19,hi8(-(1))
 165               	.LSM24:
 166 0054 2730      		cpi r18,7
 167 0056 3105      		cpc r19,__zero_reg__
 168 0058 01F4      		brne .L11
 169               	/* epilogue start */
 170               	.LBE49:
 171               	.LSM25:
 172 005a 0895      		ret
 173               	.LFE33:
 175               		.section	.text.Pipe_IsEndpointBound,"ax",@progbits
 176               	.global	Pipe_IsEndpointBound
 178               	Pipe_IsEndpointBound:
 179               	.LFB34:
 180               	.LSM26:
 181               	.LVL10:
 182               	/* prologue: function */
 183               	/* frame size = 0 */
 184               	.LSM27:
 185 0000 3091 A700 		lds r19,167
 186 0004 20E0      		ldi r18,lo8(0)
 187               	.LVL11:
 188               	.LBB50:
 189               	.LSM28:
 190 0006 482F      		mov r20,r24
 191 0008 50E0      		ldi r21,lo8(0)
 192               	.LVL12:
 193               	.L17:
 194               	.LSM29:
 195 000a 2093 A700 		sts 167,r18
 196               	.LSM30:
 197 000e 8091 AC00 		lds r24,172
 198 0012 87FF      		sbrs r24,7
 199 0014 00C0      		rjmp .L15
 200 0016 8091 AA00 		lds r24,170
 201 001a 90E0      		ldi r25,lo8(0)
 202 001c 8427      		eor r24,r20
 203 001e 9527      		eor r25,r21
 204 0020 8F70      		andi r24,lo8(15)
 205 0022 9070      		andi r25,hi8(15)
 206 0024 892B      		or r24,r25
 207 0026 01F4      		brne .L15
 208 0028 81E0      		ldi r24,lo8(1)
 209 002a 0895      		ret
 210               	.L15:
 211               	.LSM31:
 212 002c 2F5F      		subi r18,lo8(-(1))
 213 002e 2730      		cpi r18,lo8(7)
 214 0030 01F4      		brne .L17
 215               	.LBE50:
 216               	.LSM32:
 217 0032 3770      		andi r19,lo8(7)
 218               	.LSM33:
 219 0034 3093 A700 		sts 167,r19
 220 0038 80E0      		ldi r24,lo8(0)
 221               	.LSM34:
 222 003a 0895      		ret
 223               	.LFE34:
 225               		.section	.text.Pipe_WaitUntilReady,"ax",@progbits
 226               	.global	Pipe_WaitUntilReady
 228               	Pipe_WaitUntilReady:
 229               	.LFB35:
 230               	.LSM35:
 231               	/* prologue: function */
 232               	/* frame size = 0 */
 233               	.LSM36:
 234 0000 94E6      		ldi r25,lo8(100)
 235               	.LVL13:
 236               	.L32:
 237               	.LSM37:
 238 0002 8091 AA00 		lds r24,170
 239 0006 8073      		andi r24,lo8(48)
 240 0008 8031      		cpi r24,lo8(16)
 241 000a 01F4      		brne .L21
 242               	.LSM38:
 243 000c 8091 A600 		lds r24,166
 244 0010 80FF      		sbrs r24,0
 245 0012 00C0      		rjmp .L23
 246 0014 00C0      		rjmp .L22
 247               	.L21:
 248               	.LSM39:
 249 0016 8091 A600 		lds r24,166
 250 001a 82FD      		sbrc r24,2
 251 001c 00C0      		rjmp .L22
 252               	.L23:
 253               	.LSM40:
 254 001e 8091 A600 		lds r24,166
 255 0022 81FF      		sbrs r24,1
 256 0024 00C0      		rjmp .L24
 257 0026 81E0      		ldi r24,lo8(1)
 258 0028 0895      		ret
 259               	.L24:
 260               	.LSM41:
 261 002a 8091 0000 		lds r24,USB_HostState
 262 002e 8230      		cpi r24,lo8(2)
 263 0030 01F0      		breq .L25
 264               	.LSM42:
 265 0032 8091 9F00 		lds r24,159
 266 0036 85FF      		sbrs r24,5
 267 0038 00C0      		rjmp .L32
 268               	.LSM43:
 269 003a 8091 9F00 		lds r24,159
 270 003e 8F7D      		andi r24,lo8(-33)
 271 0040 8093 9F00 		sts 159,r24
 272               	.LSM44:
 273 0044 9923      		tst r25
 274 0046 01F4      		brne .L28
 275 0048 83E0      		ldi r24,lo8(3)
 276 004a 0895      		ret
 277               	.L28:
 278 004c 9150      		subi r25,lo8(-(-1))
 279 004e 00C0      		rjmp .L32
 280               	.L22:
 281 0050 80E0      		ldi r24,lo8(0)
 282               	.L25:
 283               	.LSM45:
 284 0052 0895      		ret
 285               	.LFE35:
 287               		.section	.text.Pipe_Discard_Stream,"ax",@progbits
 288               	.global	Pipe_Discard_Stream
 290               	Pipe_Discard_Stream:
 291               	.LFB36:
 292               	.LSM46:
 293               	.LVL14:
 294 0000 1F93      		push r17
 295 0002 CF93      		push r28
 296 0004 DF93      		push r29
 297               	/* prologue: function */
 298               	/* frame size = 0 */
 299 0006 EC01      		movw r28,r24
 300               	.LSM47:
 301 0008 8091 AA00 		lds r24,170
 302               	.LVL15:
 303 000c 8F7C      		andi r24,lo8(-49)
 304 000e 8061      		ori r24,lo8(16)
 305 0010 8093 AA00 		sts 170,r24
 306               	.LSM48:
 307 0014 0E94 0000 		call Pipe_WaitUntilReady
 308 0018 182F      		mov r17,r24
 309               	.LVL16:
 310 001a 8823      		tst r24
 311 001c 01F0      		breq .L40
 312               	.LVL17:
 313 001e 00C0      		rjmp .L34
 314               	.LVL18:
 315               	.L38:
 316               	.LSM49:
 317 0020 8091 A600 		lds r24,166
 318               	.LVL19:
 319 0024 85FD      		sbrc r24,5
 320 0026 00C0      		rjmp .L36
 321               	.LBB51:
 322               	.LSM50:
 323 0028 8091 A600 		lds r24,166
 324               	.LVL20:
 325 002c 982F      		mov r25,r24
 326 002e 9E7F      		andi r25,lo8(-2)
 327 0030 9093 A600 		sts 166,r25
 328 0034 8F77      		andi r24,lo8(127)
 329 0036 8093 A600 		sts 166,r24
 330               	.LBE51:
 331               	.LSM51:
 332 003a 0E94 0000 		call Pipe_WaitUntilReady
 333               	.LVL21:
 334 003e 8823      		tst r24
 335 0040 01F0      		breq .L40
 336               	.LVL22:
 337 0042 00C0      		rjmp .L37
 338               	.LVL23:
 339               	.L36:
 340               	.LBB52:
 341               	.LBB53:
 342               	.LSM52:
 343 0044 8091 AF00 		lds r24,175
 344               	.LVL24:
 345               	.LBE53:
 346               	.LBE52:
 347               	.LSM53:
 348 0048 2197      		sbiw r28,1
 349               	.LVL25:
 350               	.L40:
 351               	.LSM54:
 352 004a 2097      		sbiw r28,0
 353 004c 01F4      		brne .L38
 354               	.L34:
 355 004e 812F      		mov r24,r17
 356               	.LVL26:
 357               	.L37:
 358               	.LVL27:
 359               	/* epilogue start */
 360               	.LSM55:
 361 0050 DF91      		pop r29
 362 0052 CF91      		pop r28
 363               	.LVL28:
 364 0054 1F91      		pop r17
 365               	.LVL29:
 366 0056 0895      		ret
 367               	.LFE36:
 369               		.section	.text.Pipe_Write_Stream_LE,"ax",@progbits
 370               	.global	Pipe_Write_Stream_LE
 372               	Pipe_Write_Stream_LE:
 373               	.LFB37:
 374               	.LSM56:
 375               	.LVL30:
 376 0000 FF92      		push r15
 377 0002 0F93      		push r16
 378 0004 1F93      		push r17
 379 0006 CF93      		push r28
 380 0008 DF93      		push r29
 381               	/* prologue: function */
 382               	/* frame size = 0 */
 383 000a 182F      		mov r17,r24
 384 000c 092F      		mov r16,r25
 385               	.LVL31:
 386 000e EB01      		movw r28,r22
 387               	.LSM57:
 388 0010 8091 AA00 		lds r24,170
 389               	.LVL32:
 390 0014 8F7C      		andi r24,lo8(-49)
 391 0016 8062      		ori r24,lo8(32)
 392 0018 8093 AA00 		sts 170,r24
 393               	.LSM58:
 394 001c 0E94 0000 		call Pipe_WaitUntilReady
 395               	.LVL33:
 396 0020 F82E      		mov r15,r24
 397               	.LVL34:
 398 0022 8823      		tst r24
 399 0024 01F4      		brne .L42
 400               	.LVL35:
 401               	.LSM59:
 402 0026 812F      		mov r24,r17
 403               	.LVL36:
 404 0028 902F      		mov r25,r16
 405               	.LVL37:
 406 002a 9C01      		movw r18,r24
 407               	.LVL38:
 408 002c 8901      		movw r16,r18
 409               	.LVL39:
 410 002e 00C0      		rjmp .L48
 411               	.LVL40:
 412               	.L46:
 413               	.LSM60:
 414 0030 8091 A600 		lds r24,166
 415 0034 85FD      		sbrc r24,5
 416 0036 00C0      		rjmp .L44
 417               	.LBB54:
 418               	.LSM61:
 419 0038 8091 A600 		lds r24,166
 420               	.LVL41:
 421 003c 982F      		mov r25,r24
 422               	.LVL42:
 423 003e 9B7F      		andi r25,lo8(-5)
 424 0040 9093 A600 		sts 166,r25
 425 0044 8F77      		andi r24,lo8(127)
 426 0046 8093 A600 		sts 166,r24
 427               	.LBE54:
 428               	.LSM62:
 429 004a 0E94 0000 		call Pipe_WaitUntilReady
 430               	.LVL43:
 431 004e 8823      		tst r24
 432 0050 01F0      		breq .L48
 433               	.LVL44:
 434 0052 00C0      		rjmp .L45
 435               	.LVL45:
 436               	.L44:
 437               	.LSM63:
 438 0054 F801      		movw r30,r16
 439 0056 8191      		ld r24,Z+
 440 0058 8F01      		movw r16,r30
 441               	.LBB55:
 442               	.LBB56:
 443               	.LSM64:
 444 005a 8093 AF00 		sts 175,r24
 445               	.LBE56:
 446               	.LBE55:
 447               	.LSM65:
 448 005e 2197      		sbiw r28,1
 449               	.LVL46:
 450               	.L48:
 451               	.LSM66:
 452 0060 2097      		sbiw r28,0
 453 0062 01F4      		brne .L46
 454               	.LVL47:
 455               	.L42:
 456 0064 8F2D      		mov r24,r15
 457               	.L45:
 458               	.LVL48:
 459               	/* epilogue start */
 460               	.LSM67:
 461 0066 DF91      		pop r29
 462 0068 CF91      		pop r28
 463               	.LVL49:
 464 006a 1F91      		pop r17
 465               	.LVL50:
 466 006c 0F91      		pop r16
 467               	.LVL51:
 468 006e FF90      		pop r15
 469               	.LVL52:
 470 0070 0895      		ret
 471               	.LFE37:
 473               		.section	.text.Pipe_Write_PStream_LE,"ax",@progbits
 474               	.global	Pipe_Write_PStream_LE
 476               	Pipe_Write_PStream_LE:
 477               	.LFB38:
 478               	.LSM68:
 479               	.LVL53:
 480 0000 DF92      		push r13
 481 0002 EF92      		push r14
 482 0004 FF92      		push r15
 483 0006 0F93      		push r16
 484 0008 1F93      		push r17
 485 000a CF93      		push r28
 486 000c DF93      		push r29
 487               	/* prologue: function */
 488               	/* frame size = 0 */
 489 000e F82E      		mov r15,r24
 490 0010 E92E      		mov r14,r25
 491               	.LVL54:
 492 0012 8B01      		movw r16,r22
 493               	.LSM69:
 494 0014 8091 AA00 		lds r24,170
 495               	.LVL55:
 496 0018 8F7C      		andi r24,lo8(-49)
 497 001a 8062      		ori r24,lo8(32)
 498 001c 8093 AA00 		sts 170,r24
 499               	.LSM70:
 500 0020 0E94 0000 		call Pipe_WaitUntilReady
 501               	.LVL56:
 502 0024 D82E      		mov r13,r24
 503               	.LVL57:
 504 0026 8823      		tst r24
 505 0028 01F4      		brne .L50
 506               	.LVL58:
 507               	.LSM71:
 508 002a 8F2D      		mov r24,r15
 509               	.LVL59:
 510 002c 9E2D      		mov r25,r14
 511               	.LVL60:
 512 002e 9C01      		movw r18,r24
 513               	.LVL61:
 514 0030 E901      		movw r28,r18
 515               	.LVL62:
 516 0032 00C0      		rjmp .L56
 517               	.LVL63:
 518               	.L54:
 519               	.LSM72:
 520 0034 8091 A600 		lds r24,166
 521 0038 85FD      		sbrc r24,5
 522 003a 00C0      		rjmp .L52
 523               	.LBB57:
 524               	.LSM73:
 525 003c 8091 A600 		lds r24,166
 526               	.LVL64:
 527 0040 982F      		mov r25,r24
 528               	.LVL65:
 529 0042 9B7F      		andi r25,lo8(-5)
 530 0044 9093 A600 		sts 166,r25
 531 0048 8F77      		andi r24,lo8(127)
 532 004a 8093 A600 		sts 166,r24
 533               	.LBE57:
 534               	.LSM74:
 535 004e 0E94 0000 		call Pipe_WaitUntilReady
 536               	.LVL66:
 537 0052 8823      		tst r24
 538 0054 01F0      		breq .L56
 539               	.LVL67:
 540 0056 00C0      		rjmp .L53
 541               	.LVL68:
 542               	.L52:
 543               	.LBB58:
 544               	.LSM75:
 545 0058 FE01      		movw r30,r28
 546               	.LVL69:
 547 005a 2196      		adiw r28,1
 548               	/* #APP */
 549               	 ;  67 "LUFA/Drivers/USB/LowLevel/Template/Template_Pipe_RW.c" 1
 550 005c E491      		lpm r30, Z
 551               		
 552               	 ;  0 "" 2
 553               	.LVL70:
 554               	/* #NOAPP */
 555               	.LBE58:
 556               	.LBB59:
 557               	.LBB60:
 558               	.LSM76:
 559 005e E093 AF00 		sts 175,r30
 560               	.LBE60:
 561               	.LBE59:
 562               	.LSM77:
 563 0062 0150      		subi r16,lo8(-(-1))
 564 0064 1040      		sbci r17,hi8(-(-1))
 565               	.LVL71:
 566               	.L56:
 567               	.LSM78:
 568 0066 0115      		cp r16,__zero_reg__
 569 0068 1105      		cpc r17,__zero_reg__
 570 006a 01F4      		brne .L54
 571               	.LVL72:
 572               	.L50:
 573 006c 8D2D      		mov r24,r13
 574               	.L53:
 575               	.LVL73:
 576               	/* epilogue start */
 577               	.LSM79:
 578 006e DF91      		pop r29
 579 0070 CF91      		pop r28
 580               	.LVL74:
 581 0072 1F91      		pop r17
 582 0074 0F91      		pop r16
 583               	.LVL75:
 584 0076 FF90      		pop r15
 585               	.LVL76:
 586 0078 EF90      		pop r14
 587               	.LVL77:
 588 007a DF90      		pop r13
 589               	.LVL78:
 590 007c 0895      		ret
 591               	.LFE38:
 593               		.section	.text.Pipe_Write_EStream_LE,"ax",@progbits
 594               	.global	Pipe_Write_EStream_LE
 596               	Pipe_Write_EStream_LE:
 597               	.LFB39:
 598               	.LSM80:
 599               	.LVL79:
 600 0000 DF92      		push r13
 601 0002 EF92      		push r14
 602 0004 FF92      		push r15
 603 0006 0F93      		push r16
 604 0008 1F93      		push r17
 605 000a CF93      		push r28
 606 000c DF93      		push r29
 607               	/* prologue: function */
 608               	/* frame size = 0 */
 609 000e F82E      		mov r15,r24
 610 0010 E92E      		mov r14,r25
 611               	.LVL80:
 612 0012 8B01      		movw r16,r22
 613               	.LSM81:
 614 0014 8091 AA00 		lds r24,170
 615               	.LVL81:
 616 0018 8F7C      		andi r24,lo8(-49)
 617 001a 8062      		ori r24,lo8(32)
 618 001c 8093 AA00 		sts 170,r24
 619               	.LSM82:
 620 0020 0E94 0000 		call Pipe_WaitUntilReady
 621               	.LVL82:
 622 0024 D82E      		mov r13,r24
 623               	.LVL83:
 624 0026 8823      		tst r24
 625 0028 01F4      		brne .L58
 626               	.LVL84:
 627               	.LSM83:
 628 002a 8F2D      		mov r24,r15
 629               	.LVL85:
 630 002c 9E2D      		mov r25,r14
 631               	.LVL86:
 632 002e 9C01      		movw r18,r24
 633               	.LVL87:
 634 0030 00C0      		rjmp .L67
 635               	.LVL88:
 636               	.L62:
 637               	.LSM84:
 638 0032 8091 A600 		lds r24,166
 639               	.LVL89:
 640 0036 85FD      		sbrc r24,5
 641 0038 00C0      		rjmp .L64
 642               	.LBB61:
 643               	.LSM85:
 644 003a 8091 A600 		lds r24,166
 645               	.LVL90:
 646 003e 982F      		mov r25,r24
 647               	.LVL91:
 648 0040 9B7F      		andi r25,lo8(-5)
 649 0042 9093 A600 		sts 166,r25
 650 0046 8F77      		andi r24,lo8(127)
 651 0048 8093 A600 		sts 166,r24
 652               	.LBE61:
 653               	.LSM86:
 654 004c 0E94 0000 		call Pipe_WaitUntilReady
 655               	.LVL92:
 656 0050 8823      		tst r24
 657 0052 01F0      		breq .L66
 658               	.LVL93:
 659 0054 00C0      		rjmp .L61
 660               	.LVL94:
 661               	.L64:
 662               	.LBB62:
 663               	.LBB63:
 664               	.LSM87:
 665 0056 F999      		sbic 63-32,1
 666 0058 00C0      		rjmp .L64
 667               	.LBE63:
 668               	.LBE62:
 669               	.LSM88:
 670 005a 9E01      		movw r18,r28
 671 005c 2F5F      		subi r18,lo8(-(1))
 672 005e 3F4F      		sbci r19,hi8(-(1))
 673               	.LVL95:
 674               	.LBB65:
 675               	.LBB64:
 676               	.LSM89:
 677 0060 D2BD      		out (65)+1-32,r29
 678 0062 C1BD      		out 65-32,r28
 679               	.LSM90:
 680               	/* #APP */
 681               	 ;  208 "c:/program files/winavr-20090313/lib/gcc/../../avr/include/avr/eeprom.h" 1
 682               		/* START EEPROM READ CRITICAL SECTION */ 
 683 0064 F89A      		sbi 31, 0 
 684 0066 80B5      		in r24, 32 
 685               		/* END EEPROM READ CRITICAL SECTION */ 
 686               		
 687               	 ;  0 "" 2
 688               	.LVL96:
 689               	/* #NOAPP */
 690               	.LBE64:
 691               	.LBE65:
 692               	.LBB66:
 693               	.LBB67:
 694               	.LSM91:
 695 0068 8093 AF00 		sts 175,r24
 696               	.LBE67:
 697               	.LBE66:
 698               	.LSM92:
 699 006c 0150      		subi r16,lo8(-(-1))
 700 006e 1040      		sbci r17,hi8(-(-1))
 701               	.LVL97:
 702               	.L67:
 703 0070 E901      		movw r28,r18
 704               	.LVL98:
 705               	.L66:
 706               	.LSM93:
 707 0072 0115      		cp r16,__zero_reg__
 708 0074 1105      		cpc r17,__zero_reg__
 709 0076 01F4      		brne .L62
 710               	.LVL99:
 711               	.L58:
 712 0078 8D2D      		mov r24,r13
 713               	.LVL100:
 714               	.L61:
 715               	.LVL101:
 716               	/* epilogue start */
 717               	.LSM94:
 718 007a DF91      		pop r29
 719 007c CF91      		pop r28
 720               	.LVL102:
 721 007e 1F91      		pop r17
 722 0080 0F91      		pop r16
 723               	.LVL103:
 724 0082 FF90      		pop r15
 725               	.LVL104:
 726 0084 EF90      		pop r14
 727               	.LVL105:
 728 0086 DF90      		pop r13
 729               	.LVL106:
 730 0088 0895      		ret
 731               	.LFE39:
 733               		.section	.text.Pipe_Write_Stream_BE,"ax",@progbits
 734               	.global	Pipe_Write_Stream_BE
 736               	Pipe_Write_Stream_BE:
 737               	.LFB40:
 738               	.LSM95:
 739               	.LVL107:
 740 0000 FF92      		push r15
 741 0002 0F93      		push r16
 742 0004 1F93      		push r17
 743 0006 CF93      		push r28
 744 0008 DF93      		push r29
 745               	/* prologue: function */
 746               	/* frame size = 0 */
 747 000a 8C01      		movw r16,r24
 748 000c EB01      		movw r28,r22
 749               	.LSM96:
 750 000e 8091 AA00 		lds r24,170
 751               	.LVL108:
 752 0012 8F7C      		andi r24,lo8(-49)
 753 0014 8062      		ori r24,lo8(32)
 754 0016 8093 AA00 		sts 170,r24
 755               	.LSM97:
 756 001a 0E94 0000 		call Pipe_WaitUntilReady
 757               	.LVL109:
 758 001e F82E      		mov r15,r24
 759               	.LVL110:
 760 0020 8823      		tst r24
 761 0022 01F4      		brne .L69
 762               	.LVL111:
 763               	.LSM98:
 764 0024 2197      		sbiw r28,1
 765 0026 0C0F      		add r16,r28
 766 0028 1D1F      		adc r17,r29
 767               	.LVL112:
 768 002a 2196      		adiw r28,1
 769 002c 00C0      		rjmp .L75
 770               	.L73:
 771               	.LSM99:
 772 002e 8091 A600 		lds r24,166
 773               	.LVL113:
 774 0032 85FD      		sbrc r24,5
 775 0034 00C0      		rjmp .L71
 776               	.LBB68:
 777               	.LSM100:
 778 0036 8091 A600 		lds r24,166
 779               	.LVL114:
 780 003a 982F      		mov r25,r24
 781 003c 9B7F      		andi r25,lo8(-5)
 782 003e 9093 A600 		sts 166,r25
 783 0042 8F77      		andi r24,lo8(127)
 784 0044 8093 A600 		sts 166,r24
 785               	.LBE68:
 786               	.LSM101:
 787 0048 0E94 0000 		call Pipe_WaitUntilReady
 788               	.LVL115:
 789 004c 8823      		tst r24
 790 004e 01F0      		breq .L75
 791               	.LVL116:
 792 0050 00C0      		rjmp .L72
 793               	.LVL117:
 794               	.L71:
 795               	.LSM102:
 796 0052 F801      		movw r30,r16
 797 0054 8081      		ld r24,Z
 798 0056 0150      		subi r16,lo8(-(-1))
 799 0058 1040      		sbci r17,hi8(-(-1))
 800               	.LBB69:
 801               	.LBB70:
 802               	.LSM103:
 803 005a 8093 AF00 		sts 175,r24
 804               	.LBE70:
 805               	.LBE69:
 806               	.LSM104:
 807 005e 2197      		sbiw r28,1
 808               	.LVL118:
 809               	.L75:
 810               	.LSM105:
 811 0060 2097      		sbiw r28,0
 812 0062 01F4      		brne .L73
 813               	.LVL119:
 814               	.L69:
 815 0064 8F2D      		mov r24,r15
 816               	.L72:
 817               	.LVL120:
 818               	/* epilogue start */
 819               	.LSM106:
 820 0066 DF91      		pop r29
 821 0068 CF91      		pop r28
 822               	.LVL121:
 823 006a 1F91      		pop r17
 824 006c 0F91      		pop r16
 825               	.LVL122:
 826 006e FF90      		pop r15
 827               	.LVL123:
 828 0070 0895      		ret
 829               	.LFE40:
 831               		.section	.text.Pipe_Write_PStream_BE,"ax",@progbits
 832               	.global	Pipe_Write_PStream_BE
 834               	Pipe_Write_PStream_BE:
 835               	.LFB41:
 836               	.LSM107:
 837               	.LVL124:
 838 0000 FF92      		push r15
 839 0002 0F93      		push r16
 840 0004 1F93      		push r17
 841 0006 CF93      		push r28
 842 0008 DF93      		push r29
 843               	/* prologue: function */
 844               	/* frame size = 0 */
 845 000a 8C01      		movw r16,r24
 846 000c EB01      		movw r28,r22
 847               	.LSM108:
 848 000e 8091 AA00 		lds r24,170
 849               	.LVL125:
 850 0012 8F7C      		andi r24,lo8(-49)
 851 0014 8062      		ori r24,lo8(32)
 852 0016 8093 AA00 		sts 170,r24
 853               	.LSM109:
 854 001a 0E94 0000 		call Pipe_WaitUntilReady
 855               	.LVL126:
 856 001e F82E      		mov r15,r24
 857               	.LVL127:
 858 0020 8823      		tst r24
 859 0022 01F4      		brne .L77
 860               	.LVL128:
 861               	.LSM110:
 862 0024 2197      		sbiw r28,1
 863 0026 0C0F      		add r16,r28
 864 0028 1D1F      		adc r17,r29
 865               	.LVL129:
 866 002a 2196      		adiw r28,1
 867 002c 00C0      		rjmp .L83
 868               	.LVL130:
 869               	.L81:
 870               	.LSM111:
 871 002e 8091 A600 		lds r24,166
 872 0032 85FD      		sbrc r24,5
 873 0034 00C0      		rjmp .L79
 874               	.LBB71:
 875               	.LSM112:
 876 0036 8091 A600 		lds r24,166
 877               	.LVL131:
 878 003a 982F      		mov r25,r24
 879 003c 9B7F      		andi r25,lo8(-5)
 880 003e 9093 A600 		sts 166,r25
 881 0042 8F77      		andi r24,lo8(127)
 882 0044 8093 A600 		sts 166,r24
 883               	.LBE71:
 884               	.LSM113:
 885 0048 0E94 0000 		call Pipe_WaitUntilReady
 886               	.LVL132:
 887 004c 8823      		tst r24
 888 004e 01F0      		breq .L83
 889               	.LVL133:
 890 0050 00C0      		rjmp .L80
 891               	.LVL134:
 892               	.L79:
 893               	.LBB72:
 894               	.LSM114:
 895 0052 F801      		movw r30,r16
 896               	.LVL135:
 897 0054 0150      		subi r16,lo8(-(-1))
 898 0056 1040      		sbci r17,hi8(-(-1))
 899               	/* #APP */
 900               	 ;  67 "LUFA/Drivers/USB/LowLevel/Template/Template_Pipe_RW.c" 1
 901 0058 E491      		lpm r30, Z
 902               		
 903               	 ;  0 "" 2
 904               	.LVL136:
 905               	/* #NOAPP */
 906               	.LBE72:
 907               	.LBB73:
 908               	.LBB74:
 909               	.LSM115:
 910 005a E093 AF00 		sts 175,r30
 911               	.LBE74:
 912               	.LBE73:
 913               	.LSM116:
 914 005e 2197      		sbiw r28,1
 915               	.LVL137:
 916               	.L83:
 917               	.LSM117:
 918 0060 2097      		sbiw r28,0
 919 0062 01F4      		brne .L81
 920               	.LVL138:
 921               	.L77:
 922 0064 8F2D      		mov r24,r15
 923               	.L80:
 924               	.LVL139:
 925               	/* epilogue start */
 926               	.LSM118:
 927 0066 DF91      		pop r29
 928 0068 CF91      		pop r28
 929               	.LVL140:
 930 006a 1F91      		pop r17
 931 006c 0F91      		pop r16
 932               	.LVL141:
 933 006e FF90      		pop r15
 934               	.LVL142:
 935 0070 0895      		ret
 936               	.LFE41:
 938               		.section	.text.Pipe_Write_EStream_BE,"ax",@progbits
 939               	.global	Pipe_Write_EStream_BE
 941               	Pipe_Write_EStream_BE:
 942               	.LFB42:
 943               	.LSM119:
 944               	.LVL143:
 945 0000 FF92      		push r15
 946 0002 0F93      		push r16
 947 0004 1F93      		push r17
 948 0006 CF93      		push r28
 949 0008 DF93      		push r29
 950               	/* prologue: function */
 951               	/* frame size = 0 */
 952 000a 8C01      		movw r16,r24
 953 000c EB01      		movw r28,r22
 954               	.LSM120:
 955 000e 8091 AA00 		lds r24,170
 956               	.LVL144:
 957 0012 8F7C      		andi r24,lo8(-49)
 958 0014 8062      		ori r24,lo8(32)
 959 0016 8093 AA00 		sts 170,r24
 960               	.LSM121:
 961 001a 0E94 0000 		call Pipe_WaitUntilReady
 962               	.LVL145:
 963 001e F82E      		mov r15,r24
 964               	.LVL146:
 965 0020 8823      		tst r24
 966 0022 01F4      		brne .L85
 967               	.LVL147:
 968               	.LSM122:
 969 0024 2197      		sbiw r28,1
 970 0026 0C0F      		add r16,r28
 971 0028 1D1F      		adc r17,r29
 972               	.LVL148:
 973 002a 2196      		adiw r28,1
 974 002c 00C0      		rjmp .L93
 975               	.LVL149:
 976               	.L89:
 977               	.LSM123:
 978 002e 8091 A600 		lds r24,166
 979               	.LVL150:
 980 0032 85FD      		sbrc r24,5
 981 0034 00C0      		rjmp .L91
 982               	.LBB75:
 983               	.LSM124:
 984 0036 8091 A600 		lds r24,166
 985               	.LVL151:
 986 003a 982F      		mov r25,r24
 987 003c 9B7F      		andi r25,lo8(-5)
 988 003e 9093 A600 		sts 166,r25
 989 0042 8F77      		andi r24,lo8(127)
 990 0044 8093 A600 		sts 166,r24
 991               	.LBE75:
 992               	.LSM125:
 993 0048 0E94 0000 		call Pipe_WaitUntilReady
 994               	.LVL152:
 995 004c 8823      		tst r24
 996 004e 01F0      		breq .L93
 997               	.LVL153:
 998 0050 00C0      		rjmp .L88
 999               	.LVL154:
 1000               	.L91:
 1001               	.LBB76:
 1002               	.LBB77:
 1003               	.LSM126:
 1004 0052 F999      		sbic 63-32,1
 1005 0054 00C0      		rjmp .L91
 1006               	.LBE77:
 1007               	.LBE76:
 1008               	.LSM127:
 1009 0056 9801      		movw r18,r16
 1010 0058 2150      		subi r18,lo8(-(-1))
 1011 005a 3040      		sbci r19,hi8(-(-1))
 1012               	.LVL155:
 1013               	.LBB79:
 1014               	.LBB78:
 1015               	.LSM128:
 1016 005c 12BD      		out (65)+1-32,r17
 1017 005e 01BD      		out 65-32,r16
 1018               	.LSM129:
 1019               	/* #APP */
 1020               	 ;  208 "c:/program files/winavr-20090313/lib/gcc/../../avr/include/avr/eeprom.h" 1
 1021               		/* START EEPROM READ CRITICAL SECTION */ 
 1022 0060 F89A      		sbi 31, 0 
 1023 0062 80B5      		in r24, 32 
 1024               		/* END EEPROM READ CRITICAL SECTION */ 
 1025               		
 1026               	 ;  0 "" 2
 1027               	.LVL156:
 1028               	/* #NOAPP */
 1029               	.LBE78:
 1030               	.LBE79:
 1031               	.LBB80:
 1032               	.LBB81:
 1033               	.LSM130:
 1034 0064 8093 AF00 		sts 175,r24
 1035               	.LBE81:
 1036               	.LBE80:
 1037               	.LSM131:
 1038 0068 2197      		sbiw r28,1
 1039 006a 8901      		movw r16,r18
 1040               	.LVL157:
 1041               	.L93:
 1042               	.LSM132:
 1043 006c 2097      		sbiw r28,0
 1044 006e 01F4      		brne .L89
 1045               	.LVL158:
 1046               	.L85:
 1047 0070 8F2D      		mov r24,r15
 1048               	.LVL159:
 1049               	.L88:
 1050               	.LVL160:
 1051               	/* epilogue start */
 1052               	.LSM133:
 1053 0072 DF91      		pop r29
 1054 0074 CF91      		pop r28
 1055               	.LVL161:
 1056 0076 1F91      		pop r17
 1057 0078 0F91      		pop r16
 1058               	.LVL162:
 1059 007a FF90      		pop r15
 1060               	.LVL163:
 1061 007c 0895      		ret
 1062               	.LFE42:
 1064               		.section	.text.Pipe_Read_Stream_LE,"ax",@progbits
 1065               	.global	Pipe_Read_Stream_LE
 1067               	Pipe_Read_Stream_LE:
 1068               	.LFB43:
 1069               	.LSM134:
 1070               	.LVL164:
 1071 0000 FF92      		push r15
 1072 0002 0F93      		push r16
 1073 0004 1F93      		push r17
 1074 0006 CF93      		push r28
 1075 0008 DF93      		push r29
 1076               	/* prologue: function */
 1077               	/* frame size = 0 */
 1078 000a 182F      		mov r17,r24
 1079 000c 092F      		mov r16,r25
 1080               	.LVL165:
 1081 000e EB01      		movw r28,r22
 1082               	.LSM135:
 1083 0010 8091 AA00 		lds r24,170
 1084               	.LVL166:
 1085 0014 8F7C      		andi r24,lo8(-49)
 1086 0016 8061      		ori r24,lo8(16)
 1087 0018 8093 AA00 		sts 170,r24
 1088               	.LSM136:
 1089 001c 0E94 0000 		call Pipe_WaitUntilReady
 1090               	.LVL167:
 1091 0020 F82E      		mov r15,r24
 1092               	.LVL168:
 1093 0022 8823      		tst r24
 1094 0024 01F4      		brne .L95
 1095               	.LVL169:
 1096               	.LSM137:
 1097 0026 812F      		mov r24,r17
 1098               	.LVL170:
 1099 0028 902F      		mov r25,r16
 1100               	.LVL171:
 1101 002a 9C01      		movw r18,r24
 1102               	.LVL172:
 1103 002c 8901      		movw r16,r18
 1104               	.LVL173:
 1105 002e 00C0      		rjmp .L101
 1106               	.LVL174:
 1107               	.L99:
 1108               	.LSM138:
 1109 0030 8091 A600 		lds r24,166
 1110 0034 85FD      		sbrc r24,5
 1111 0036 00C0      		rjmp .L97
 1112               	.LBB82:
 1113               	.LSM139:
 1114 0038 8091 A600 		lds r24,166
 1115               	.LVL175:
 1116 003c 982F      		mov r25,r24
 1117               	.LVL176:
 1118 003e 9E7F      		andi r25,lo8(-2)
 1119 0040 9093 A600 		sts 166,r25
 1120 0044 8F77      		andi r24,lo8(127)
 1121 0046 8093 A600 		sts 166,r24
 1122               	.LBE82:
 1123               	.LSM140:
 1124 004a 0E94 0000 		call Pipe_WaitUntilReady
 1125               	.LVL177:
 1126 004e 8823      		tst r24
 1127 0050 01F0      		breq .L101
 1128               	.LVL178:
 1129 0052 00C0      		rjmp .L98
 1130               	.LVL179:
 1131               	.L97:
 1132               	.LBB83:
 1133               	.LBB84:
 1134               	.LSM141:
 1135 0054 8091 AF00 		lds r24,175
 1136               	.LBE84:
 1137               	.LBE83:
 1138               	.LSM142:
 1139 0058 F801      		movw r30,r16
 1140 005a 8193      		st Z+,r24
 1141 005c 8F01      		movw r16,r30
 1142               	.LSM143:
 1143 005e 2197      		sbiw r28,1
 1144               	.LVL180:
 1145               	.L101:
 1146               	.LSM144:
 1147 0060 2097      		sbiw r28,0
 1148 0062 01F4      		brne .L99
 1149               	.LVL181:
 1150               	.L95:
 1151 0064 8F2D      		mov r24,r15
 1152               	.L98:
 1153               	.LVL182:
 1154               	/* epilogue start */
 1155               	.LSM145:
 1156 0066 DF91      		pop r29
 1157 0068 CF91      		pop r28
 1158               	.LVL183:
 1159 006a 1F91      		pop r17
 1160               	.LVL184:
 1161 006c 0F91      		pop r16
 1162               	.LVL185:
 1163 006e FF90      		pop r15
 1164               	.LVL186:
 1165 0070 0895      		ret
 1166               	.LFE43:
 1168               		.section	.text.Pipe_Read_EStream_LE,"ax",@progbits
 1169               	.global	Pipe_Read_EStream_LE
 1171               	Pipe_Read_EStream_LE:
 1172               	.LFB44:
 1173               	.LSM146:
 1174               	.LVL187:
 1175 0000 DF92      		push r13
 1176 0002 EF92      		push r14
 1177 0004 FF92      		push r15
 1178 0006 0F93      		push r16
 1179 0008 1F93      		push r17
 1180 000a CF93      		push r28
 1181 000c DF93      		push r29
 1182               	/* prologue: function */
 1183               	/* frame size = 0 */
 1184 000e F82E      		mov r15,r24
 1185 0010 E92E      		mov r14,r25
 1186               	.LVL188:
 1187 0012 8B01      		movw r16,r22
 1188               	.LSM147:
 1189 0014 8091 AA00 		lds r24,170
 1190               	.LVL189:
 1191 0018 8F7C      		andi r24,lo8(-49)
 1192 001a 8061      		ori r24,lo8(16)
 1193 001c 8093 AA00 		sts 170,r24
 1194               	.LSM148:
 1195 0020 0E94 0000 		call Pipe_WaitUntilReady
 1196               	.LVL190:
 1197 0024 D82E      		mov r13,r24
 1198               	.LVL191:
 1199 0026 8823      		tst r24
 1200 0028 01F4      		brne .L103
 1201               	.LVL192:
 1202               	.LSM149:
 1203 002a 8F2D      		mov r24,r15
 1204               	.LVL193:
 1205 002c 9E2D      		mov r25,r14
 1206               	.LVL194:
 1207 002e 9C01      		movw r18,r24
 1208               	.LVL195:
 1209 0030 E901      		movw r28,r18
 1210               	.LVL196:
 1211 0032 00C0      		rjmp .L111
 1212               	.LVL197:
 1213               	.L108:
 1214               	.LSM150:
 1215 0034 8091 A600 		lds r24,166
 1216 0038 85FD      		sbrc r24,5
 1217 003a 00C0      		rjmp .L105
 1218               	.LBB85:
 1219               	.LSM151:
 1220 003c 8091 A600 		lds r24,166
 1221               	.LVL198:
 1222 0040 982F      		mov r25,r24
 1223               	.LVL199:
 1224 0042 9E7F      		andi r25,lo8(-2)
 1225 0044 9093 A600 		sts 166,r25
 1226 0048 8F77      		andi r24,lo8(127)
 1227 004a 8093 A600 		sts 166,r24
 1228               	.LBE85:
 1229               	.LSM152:
 1230 004e 0E94 0000 		call Pipe_WaitUntilReady
 1231               	.LVL200:
 1232 0052 8823      		tst r24
 1233 0054 01F0      		breq .L111
 1234               	.LVL201:
 1235 0056 00C0      		rjmp .L106
 1236               	.LVL202:
 1237               	.L105:
 1238               	.LBB86:
 1239               	.LBB87:
 1240               	.LSM153:
 1241 0058 2091 AF00 		lds r18,175
 1242               	.L107:
 1243               	.LBE87:
 1244               	.LBE86:
 1245               	.LBB88:
 1246               	.LBB89:
 1247               	.LSM154:
 1248 005c F999      		sbic 63-32,1
 1249 005e 00C0      		rjmp .L107
 1250               	.LBE89:
 1251               	.LBE88:
 1252               	.LSM155:
 1253 0060 CE01      		movw r24,r28
 1254 0062 0196      		adiw r24,1
 1255               	.LVL203:
 1256               	.LBB91:
 1257               	.LBB90:
 1258               	.LSM156:
 1259 0064 1FBA      		out 63-32,__zero_reg__
 1260               	.LSM157:
 1261 0066 D2BD      		out (65)+1-32,r29
 1262 0068 C1BD      		out 65-32,r28
 1263               	.LSM158:
 1264 006a 20BD      		out 64-32,r18
 1265               	.LSM159:
 1266               	/* #APP */
 1267               	 ;  315 "c:/program files/winavr-20090313/lib/gcc/../../avr/include/avr/eeprom.h" 1
 1268               		/* START EEPROM WRITE CRITICAL SECTION */
 1269 006c 0FB6      		in	r0, 63		
 1270 006e F894      		cli				
 1271 0070 FA9A      		sbi	31, 2	
 1272 0072 F99A      		sbi	31, 1	
 1273 0074 0FBE      		out	63, r0		
 1274               		/* END EEPROM WRITE CRITICAL SECTION */
 1275               	 ;  0 "" 2
 1276               	/* #NOAPP */
 1277               	.LBE90:
 1278               	.LBE91:
 1279               	.LSM160:
 1280 0076 0150      		subi r16,lo8(-(-1))
 1281 0078 1040      		sbci r17,hi8(-(-1))
 1282 007a EC01      		movw r28,r24
 1283               	.LVL204:
 1284               	.L111:
 1285               	.LSM161:
 1286 007c 0115      		cp r16,__zero_reg__
 1287 007e 1105      		cpc r17,__zero_reg__
 1288 0080 01F4      		brne .L108
 1289               	.LVL205:
 1290               	.L103:
 1291 0082 8D2D      		mov r24,r13
 1292               	.L106:
 1293               	.LVL206:
 1294               	/* epilogue start */
 1295               	.LSM162:
 1296 0084 DF91      		pop r29
 1297 0086 CF91      		pop r28
 1298               	.LVL207:
 1299 0088 1F91      		pop r17
 1300 008a 0F91      		pop r16
 1301               	.LVL208:
 1302 008c FF90      		pop r15
 1303               	.LVL209:
 1304 008e EF90      		pop r14
 1305               	.LVL210:
 1306 0090 DF90      		pop r13
 1307               	.LVL211:
 1308 0092 0895      		ret
 1309               	.LFE44:
 1311               		.section	.text.Pipe_Read_Stream_BE,"ax",@progbits
 1312               	.global	Pipe_Read_Stream_BE
 1314               	Pipe_Read_Stream_BE:
 1315               	.LFB45:
 1316               	.LSM163:
 1317               	.LVL212:
 1318 0000 FF92      		push r15
 1319 0002 0F93      		push r16
 1320 0004 1F93      		push r17
 1321 0006 CF93      		push r28
 1322 0008 DF93      		push r29
 1323               	/* prologue: function */
 1324               	/* frame size = 0 */
 1325 000a 8C01      		movw r16,r24
 1326 000c EB01      		movw r28,r22
 1327               	.LSM164:
 1328 000e 8091 AA00 		lds r24,170
 1329               	.LVL213:
 1330 0012 8F7C      		andi r24,lo8(-49)
 1331 0014 8061      		ori r24,lo8(16)
 1332 0016 8093 AA00 		sts 170,r24
 1333               	.LSM165:
 1334 001a 0E94 0000 		call Pipe_WaitUntilReady
 1335               	.LVL214:
 1336 001e F82E      		mov r15,r24
 1337               	.LVL215:
 1338 0020 8823      		tst r24
 1339 0022 01F4      		brne .L113
 1340               	.LVL216:
 1341               	.LSM166:
 1342 0024 2197      		sbiw r28,1
 1343 0026 0C0F      		add r16,r28
 1344 0028 1D1F      		adc r17,r29
 1345               	.LVL217:
 1346 002a 2196      		adiw r28,1
 1347 002c 00C0      		rjmp .L119
 1348               	.L117:
 1349               	.LSM167:
 1350 002e 8091 A600 		lds r24,166
 1351               	.LVL218:
 1352 0032 85FD      		sbrc r24,5
 1353 0034 00C0      		rjmp .L115
 1354               	.LBB92:
 1355               	.LSM168:
 1356 0036 8091 A600 		lds r24,166
 1357               	.LVL219:
 1358 003a 982F      		mov r25,r24
 1359 003c 9E7F      		andi r25,lo8(-2)
 1360 003e 9093 A600 		sts 166,r25
 1361 0042 8F77      		andi r24,lo8(127)
 1362 0044 8093 A600 		sts 166,r24
 1363               	.LBE92:
 1364               	.LSM169:
 1365 0048 0E94 0000 		call Pipe_WaitUntilReady
 1366               	.LVL220:
 1367 004c 8823      		tst r24
 1368 004e 01F0      		breq .L119
 1369               	.LVL221:
 1370 0050 00C0      		rjmp .L116
 1371               	.LVL222:
 1372               	.L115:
 1373               	.LBB93:
 1374               	.LBB94:
 1375               	.LSM170:
 1376 0052 8091 AF00 		lds r24,175
 1377               	.LBE94:
 1378               	.LBE93:
 1379               	.LSM171:
 1380 0056 F801      		movw r30,r16
 1381 0058 8083      		st Z,r24
 1382 005a 0150      		subi r16,lo8(-(-1))
 1383 005c 1040      		sbci r17,hi8(-(-1))
 1384               	.LSM172:
 1385 005e 2197      		sbiw r28,1
 1386               	.LVL223:
 1387               	.L119:
 1388               	.LSM173:
 1389 0060 2097      		sbiw r28,0
 1390 0062 01F4      		brne .L117
 1391               	.LVL224:
 1392               	.L113:
 1393 0064 8F2D      		mov r24,r15
 1394               	.L116:
 1395               	.LVL225:
 1396               	/* epilogue start */
 1397               	.LSM174:
 1398 0066 DF91      		pop r29
 1399 0068 CF91      		pop r28
 1400               	.LVL226:
 1401 006a 1F91      		pop r17
 1402 006c 0F91      		pop r16
 1403               	.LVL227:
 1404 006e FF90      		pop r15
 1405               	.LVL228:
 1406 0070 0895      		ret
 1407               	.LFE45:
 1409               		.section	.text.Pipe_Read_EStream_BE,"ax",@progbits
 1410               	.global	Pipe_Read_EStream_BE
 1412               	Pipe_Read_EStream_BE:
 1413               	.LFB46:
 1414               	.LSM175:
 1415               	.LVL229:
 1416 0000 FF92      		push r15
 1417 0002 0F93      		push r16
 1418 0004 1F93      		push r17
 1419 0006 CF93      		push r28
 1420 0008 DF93      		push r29
 1421               	/* prologue: function */
 1422               	/* frame size = 0 */
 1423 000a 8C01      		movw r16,r24
 1424 000c EB01      		movw r28,r22
 1425               	.LSM176:
 1426 000e 8091 AA00 		lds r24,170
 1427               	.LVL230:
 1428 0012 8F7C      		andi r24,lo8(-49)
 1429 0014 8061      		ori r24,lo8(16)
 1430 0016 8093 AA00 		sts 170,r24
 1431               	.LSM177:
 1432 001a 0E94 0000 		call Pipe_WaitUntilReady
 1433               	.LVL231:
 1434 001e F82E      		mov r15,r24
 1435               	.LVL232:
 1436 0020 8823      		tst r24
 1437 0022 01F4      		brne .L121
 1438               	.LVL233:
 1439               	.LSM178:
 1440 0024 2197      		sbiw r28,1
 1441 0026 0C0F      		add r16,r28
 1442 0028 1D1F      		adc r17,r29
 1443               	.LVL234:
 1444 002a 2196      		adiw r28,1
 1445 002c 00C0      		rjmp .L129
 1446               	.LVL235:
 1447               	.L126:
 1448               	.LSM179:
 1449 002e 8091 A600 		lds r24,166
 1450 0032 85FD      		sbrc r24,5
 1451 0034 00C0      		rjmp .L123
 1452               	.LBB95:
 1453               	.LSM180:
 1454 0036 8091 A600 		lds r24,166
 1455               	.LVL236:
 1456 003a 982F      		mov r25,r24
 1457 003c 9E7F      		andi r25,lo8(-2)
 1458 003e 9093 A600 		sts 166,r25
 1459 0042 8F77      		andi r24,lo8(127)
 1460 0044 8093 A600 		sts 166,r24
 1461               	.LBE95:
 1462               	.LSM181:
 1463 0048 0E94 0000 		call Pipe_WaitUntilReady
 1464               	.LVL237:
 1465 004c 8823      		tst r24
 1466 004e 01F0      		breq .L129
 1467               	.LVL238:
 1468 0050 00C0      		rjmp .L124
 1469               	.LVL239:
 1470               	.L123:
 1471               	.LBB96:
 1472               	.LBB97:
 1473               	.LSM182:
 1474 0052 2091 AF00 		lds r18,175
 1475               	.L125:
 1476               	.LBE97:
 1477               	.LBE96:
 1478               	.LBB98:
 1479               	.LBB99:
 1480               	.LSM183:
 1481 0056 F999      		sbic 63-32,1
 1482 0058 00C0      		rjmp .L125
 1483               	.LBE99:
 1484               	.LBE98:
 1485               	.LSM184:
 1486 005a C801      		movw r24,r16
 1487 005c 0197      		sbiw r24,1
 1488               	.LVL240:
 1489               	.LBB101:
 1490               	.LBB100:
 1491               	.LSM185:
 1492 005e 1FBA      		out 63-32,__zero_reg__
 1493               	.LSM186:
 1494 0060 12BD      		out (65)+1-32,r17
 1495 0062 01BD      		out 65-32,r16
 1496               	.LSM187:
 1497 0064 20BD      		out 64-32,r18
 1498               	.LSM188:
 1499               	/* #APP */
 1500               	 ;  315 "c:/program files/winavr-20090313/lib/gcc/../../avr/include/avr/eeprom.h" 1
 1501               		/* START EEPROM WRITE CRITICAL SECTION */
 1502 0066 0FB6      		in	r0, 63		
 1503 0068 F894      		cli				
 1504 006a FA9A      		sbi	31, 2	
 1505 006c F99A      		sbi	31, 1	
 1506 006e 0FBE      		out	63, r0		
 1507               		/* END EEPROM WRITE CRITICAL SECTION */
 1508               	 ;  0 "" 2
 1509               	/* #NOAPP */
 1510               	.LBE100:
 1511               	.LBE101:
 1512               	.LSM189:
 1513 0070 2197      		sbiw r28,1
 1514 0072 8C01      		movw r16,r24
 1515               	.LVL241:
 1516               	.L129:
 1517               	.LSM190:
 1518 0074 2097      		sbiw r28,0
 1519 0076 01F4      		brne .L126
 1520               	.LVL242:
 1521               	.L121:
 1522 0078 8F2D      		mov r24,r15
 1523               	.L124:
 1524               	.LVL243:
 1525               	/* epilogue start */
 1526               	.LSM191:
 1527 007a DF91      		pop r29
 1528 007c CF91      		pop r28
 1529               	.LVL244:
 1530 007e 1F91      		pop r17
 1531 0080 0F91      		pop r16
 1532               	.LVL245:
 1533 0082 FF90      		pop r15
 1534               	.LVL246:
 1535 0084 0895      		ret
 1536               	.LFE46:
 1538               	.global	USB_ControlPipeSize
 1539               		.data
 1542               	USB_ControlPipeSize:
 1543 0000 40        		.byte	64
 1680               	.Letext0:
DEFINED SYMBOLS
                            *ABS*:00000000 Pipe.c
C:\Users\Mike\AppData\Local\Temp/ccO5hk5e.s:2      *ABS*:0000003f __SREG__
C:\Users\Mike\AppData\Local\Temp/ccO5hk5e.s:3      *ABS*:0000003e __SP_H__
C:\Users\Mike\AppData\Local\Temp/ccO5hk5e.s:4      *ABS*:0000003d __SP_L__
C:\Users\Mike\AppData\Local\Temp/ccO5hk5e.s:5      *ABS*:00000034 __CCP__
C:\Users\Mike\AppData\Local\Temp/ccO5hk5e.s:6      *ABS*:00000000 __tmp_reg__
C:\Users\Mike\AppData\Local\Temp/ccO5hk5e.s:7      *ABS*:00000001 __zero_reg__
C:\Users\Mike\AppData\Local\Temp/ccO5hk5e.s:19     .text.Pipe_ConfigurePipe:00000000 Pipe_ConfigurePipe
C:\Users\Mike\AppData\Local\Temp/ccO5hk5e.s:120    .text.Pipe_ClearPipes:00000000 Pipe_ClearPipes
C:\Users\Mike\AppData\Local\Temp/ccO5hk5e.s:178    .text.Pipe_IsEndpointBound:00000000 Pipe_IsEndpointBound
C:\Users\Mike\AppData\Local\Temp/ccO5hk5e.s:228    .text.Pipe_WaitUntilReady:00000000 Pipe_WaitUntilReady
C:\Users\Mike\AppData\Local\Temp/ccO5hk5e.s:290    .text.Pipe_Discard_Stream:00000000 Pipe_Discard_Stream
C:\Users\Mike\AppData\Local\Temp/ccO5hk5e.s:372    .text.Pipe_Write_Stream_LE:00000000 Pipe_Write_Stream_LE
C:\Users\Mike\AppData\Local\Temp/ccO5hk5e.s:476    .text.Pipe_Write_PStream_LE:00000000 Pipe_Write_PStream_LE
C:\Users\Mike\AppData\Local\Temp/ccO5hk5e.s:596    .text.Pipe_Write_EStream_LE:00000000 Pipe_Write_EStream_LE
C:\Users\Mike\AppData\Local\Temp/ccO5hk5e.s:736    .text.Pipe_Write_Stream_BE:00000000 Pipe_Write_Stream_BE
C:\Users\Mike\AppData\Local\Temp/ccO5hk5e.s:834    .text.Pipe_Write_PStream_BE:00000000 Pipe_Write_PStream_BE
C:\Users\Mike\AppData\Local\Temp/ccO5hk5e.s:941    .text.Pipe_Write_EStream_BE:00000000 Pipe_Write_EStream_BE
C:\Users\Mike\AppData\Local\Temp/ccO5hk5e.s:1067   .text.Pipe_Read_Stream_LE:00000000 Pipe_Read_Stream_LE
C:\Users\Mike\AppData\Local\Temp/ccO5hk5e.s:1171   .text.Pipe_Read_EStream_LE:00000000 Pipe_Read_EStream_LE
C:\Users\Mike\AppData\Local\Temp/ccO5hk5e.s:1314   .text.Pipe_Read_Stream_BE:00000000 Pipe_Read_Stream_BE
C:\Users\Mike\AppData\Local\Temp/ccO5hk5e.s:1412   .text.Pipe_Read_EStream_BE:00000000 Pipe_Read_EStream_BE
C:\Users\Mike\AppData\Local\Temp/ccO5hk5e.s:1542   .data:00000000 USB_ControlPipeSize

UNDEFINED SYMBOLS
USB_HostState
__do_copy_data
