   1               		.file	"USBModem.c"
   2               	__SREG__ = 0x3f
   3               	__SP_H__ = 0x3e
   4               	__SP_L__ = 0x3d
   5               	__CCP__  = 0x34
   6               	__tmp_reg__ = 0
   7               	__zero_reg__ = 1
  15               	.Ltext0:
  16               		.section	.text.__vector_17,"ax",@progbits
  17               	.global	__vector_17
  19               	__vector_17:
  20               	.LFB45:
  21               	.LSM0:
  22 0000 1F92      		push __zero_reg__
  23 0002 0F92      		push r0
  24 0004 0FB6      		in r0,__SREG__
  25 0006 0F92      		push r0
  26 0008 1124      		clr __zero_reg__
  27 000a 8F93      		push r24
  28 000c 9F93      		push r25
  29               	/* prologue: Signal */
  30               	/* frame size = 0 */
  31               	.LSM1:
  32 000e 8091 0000 		lds r24,TIME
  33 0012 9091 0000 		lds r25,(TIME)+1
  34 0016 0196      		adiw r24,1
  35 0018 9093 0000 		sts (TIME)+1,r25
  36 001c 8093 0000 		sts TIME,r24
  37               	/* epilogue start */
  38               	.LSM2:
  39 0020 9F91      		pop r25
  40 0022 8F91      		pop r24
  41 0024 0F90      		pop r0
  42 0026 0FBE      		out __SREG__,r0
  43 0028 0F90      		pop r0
  44 002a 1F90      		pop __zero_reg__
  45 002c 1895      		reti
  46               	.LFE45:
  48               		.section	.init3,"ax",@progbits
  49               	.global	wdt_init
  51               	wdt_init:
  52               	.LFB47:
  53               	.LSM3:
  54               	/* prologue: naked */
  55               	/* frame size = 0 */
  56               	.LSM4:
  57 0000 14BE      		out 84-32,__zero_reg__
  58               	.LSM5:
  59 0002 88E1      		ldi r24,lo8(24)
  60               	/* #APP */
  61               	 ;  45 "USBModem.c" 1
  62 0004 0FB6      		in __tmp_reg__, __SREG__
  63 0006 F894      		cli
  64 0008 8093 6000 		sts 96, r24
  65 000c 1092 6000 		sts 96, __zero_reg__
  66 0010 0FBE      		out __SREG__,__tmp_reg__
  67               		
  68               	 ;  0 "" 2
  69               	/* epilogue start */
  70               	.LSM6:
  71               	/* #NOAPP */
  72               	.LFE47:
  74               		.section	.text.device_queue_full,"ax",@progbits
  75               	.global	device_queue_full
  77               	device_queue_full:
  78               	.LFB53:
  79               	.LSM7:
  80               	/* prologue: function */
  81               	/* frame size = 0 */
  82               	.LSM8:
  83 0000 80E0      		ldi r24,lo8(0)
  84               	/* epilogue start */
  85 0002 0895      		ret
  86               	.LFE53:
  88               		.section	.text.Debug,"ax",@progbits
  89               	.global	Debug
  91               	Debug:
  92               	.LFB63:
  93               	.LSM9:
  94               	.LVL0:
  95               	/* prologue: function */
  96               	/* frame size = 0 */
  97 0000 9C01      		movw r18,r24
  98               	.LSM10:
  99 0002 8091 0000 		lds r24,DebugMode
 100               	.LVL1:
 101 0006 8130      		cpi r24,lo8(1)
 102 0008 01F4      		brne .L9
 103               	.LSM11:
 104 000a C901      		movw r24,r18
 105 000c 0E94 0000 		call uart1_puts
 106               	.LVL2:
 107               	.L9:
 108 0010 0895      		ret
 109               	.LFE63:
 111               		.data
 112               	.LC0:
 113 0000 456E 756D 		.string	"Enumeration failed\r\n"
 113      6572 6174 
 113      696F 6E20 
 113      6661 696C 
 113      6564 0D0A 
 114               		.section	.text.EVENT_USB_Host_DeviceEnumerationFailed,"ax",@progbits
 115               	.global	EVENT_USB_Host_DeviceEnumerationFailed
 117               	EVENT_USB_Host_DeviceEnumerationFailed:
 118               	.LFB59:
 119               	.LSM12:
 120               	.LVL3:
 121               	/* prologue: function */
 122               	/* frame size = 0 */
 123               	.LSM13:
 124 0000 80E0      		ldi r24,lo8(.LC0)
 125 0002 90E0      		ldi r25,hi8(.LC0)
 126               	.LVL4:
 127 0004 0E94 0000 		call Debug
 128               	.LVL5:
 129               	.LBB70:
 130               	.LBB71:
 131               	.LSM14:
 132 0008 8BB1      		in r24,43-32
 133 000a 8F70      		andi r24,lo8(15)
 134 000c 8069      		ori r24,lo8(-112)
 135 000e 8BB9      		out 43-32,r24
 136               	/* epilogue start */
 137               	.LBE71:
 138               	.LBE70:
 139               	.LSM15:
 140 0010 0895      		ret
 141               	.LFE59:
 143               		.data
 144               	.LC1:
 145 0015 456E 756D 		.string	"Enumeration complete\r\n"
 145      6572 6174 
 145      696F 6E20 
 145      636F 6D70 
 145      6C65 7465 
 146               		.section	.text.EVENT_USB_Host_DeviceEnumerationComplete,"ax",@progbits
 147               	.global	EVENT_USB_Host_DeviceEnumerationComplete
 149               	EVENT_USB_Host_DeviceEnumerationComplete:
 150               	.LFB57:
 151               	.LSM16:
 152               	/* prologue: function */
 153               	/* frame size = 0 */
 154               	.LSM17:
 155 0000 80E0      		ldi r24,lo8(.LC1)
 156 0002 90E0      		ldi r25,hi8(.LC1)
 157 0004 0E94 0000 		call Debug
 158               	.LBB72:
 159               	.LBB73:
 160               	.LSM18:
 161 0008 8BB1      		in r24,43-32
 162 000a 8F70      		andi r24,lo8(15)
 163 000c 8066      		ori r24,lo8(96)
 164 000e 8BB9      		out 43-32,r24
 165               	/* epilogue start */
 166               	.LBE73:
 167               	.LBE72:
 168               	.LSM19:
 169 0010 0895      		ret
 170               	.LFE57:
 172               		.data
 173               	.LC2:
 174 002c 4465 7669 		.string	"Device Unattached\r\n"
 174      6365 2055 
 174      6E61 7474 
 174      6163 6865 
 174      640D 0A00 
 175               		.section	.text.EVENT_USB_Host_DeviceUnattached,"ax",@progbits
 176               	.global	EVENT_USB_Host_DeviceUnattached
 178               	EVENT_USB_Host_DeviceUnattached:
 179               	.LFB56:
 180               	.LSM20:
 181               	/* prologue: function */
 182               	/* frame size = 0 */
 183               	.LSM21:
 184 0000 80E0      		ldi r24,lo8(.LC2)
 185 0002 90E0      		ldi r25,hi8(.LC2)
 186 0004 0E94 0000 		call Debug
 187               	.LBB74:
 188               	.LBB75:
 189               	.LSM22:
 190 0008 8BB1      		in r24,43-32
 191 000a 8F70      		andi r24,lo8(15)
 192 000c 8061      		ori r24,lo8(16)
 193 000e 8BB9      		out 43-32,r24
 194               	.LBE75:
 195               	.LBE74:
 196               	.LSM23:
 197 0010 1092 0000 		sts ConnectedState,__zero_reg__
 198               	/* epilogue start */
 199               	.LSM24:
 200 0014 0895      		ret
 201               	.LFE56:
 203               		.data
 204               	.LC3:
 205 0040 4465 7669 		.string	"Device Attached\r\n"
 205      6365 2041 
 205      7474 6163 
 205      6865 640D 
 205      0A00 
 206               		.section	.text.EVENT_USB_Host_DeviceAttached,"ax",@progbits
 207               	.global	EVENT_USB_Host_DeviceAttached
 209               	EVENT_USB_Host_DeviceAttached:
 210               	.LFB55:
 211               	.LSM25:
 212               	/* prologue: function */
 213               	/* frame size = 0 */
 214               	.LSM26:
 215 0000 80E0      		ldi r24,lo8(.LC3)
 216 0002 90E0      		ldi r25,hi8(.LC3)
 217 0004 0E94 0000 		call Debug
 218               	.LBB76:
 219               	.LBB77:
 220               	.LSM27:
 221 0008 8BB1      		in r24,43-32
 222 000a 8F70      		andi r24,lo8(15)
 223 000c 806A      		ori r24,lo8(-96)
 224 000e 8BB9      		out 43-32,r24
 225               	/* epilogue start */
 226               	.LBE77:
 227               	.LBE76:
 228               	.LSM28:
 229 0010 0895      		ret
 230               	.LFE55:
 232               		.data
 233               	.LC4:
 234 0052 5761 7463 		.string	"Watchdog reboot\r\n"
 234      6864 6F67 
 234      2072 6562 
 234      6F6F 740D 
 234      0A00 
 235               		.section	.text.__vector_12,"ax",@progbits
 236               	.global	__vector_12
 238               	__vector_12:
 239               	.LFB46:
 240               	.LSM29:
 241 0000 1F92      		push __zero_reg__
 242 0002 0F92      		push r0
 243 0004 0FB6      		in r0,__SREG__
 244 0006 0F92      		push r0
 245 0008 0BB6      		in r0,91-32
 246 000a 0F92      		push r0
 247 000c 1124      		clr __zero_reg__
 248 000e 2F93      		push r18
 249 0010 3F93      		push r19
 250 0012 4F93      		push r20
 251 0014 5F93      		push r21
 252 0016 6F93      		push r22
 253 0018 7F93      		push r23
 254 001a 8F93      		push r24
 255 001c 9F93      		push r25
 256 001e AF93      		push r26
 257 0020 BF93      		push r27
 258 0022 EF93      		push r30
 259 0024 FF93      		push r31
 260               	/* prologue: Signal */
 261               	/* frame size = 0 */
 262               	.LSM30:
 263 0026 8091 0000 		lds r24,WatchdogTicks
 264 002a 8F5F      		subi r24,lo8(-(1))
 265 002c 8093 0000 		sts WatchdogTicks,r24
 266 0030 8731      		cpi r24,lo8(23)
 267 0032 00F0      		brlo .L20
 268               	.LSM31:
 269 0034 88E1      		ldi r24,lo8(24)
 270 0036 8093 6000 		sts 96,r24
 271               	.LSM32:
 272 003a 80E0      		ldi r24,lo8(.LC4)
 273 003c 90E0      		ldi r25,hi8(.LC4)
 274 003e 0E94 0000 		call Debug
 275               	.L20:
 276               	/* epilogue start */
 277               	.LSM33:
 278 0042 FF91      		pop r31
 279 0044 EF91      		pop r30
 280 0046 BF91      		pop r27
 281 0048 AF91      		pop r26
 282 004a 9F91      		pop r25
 283 004c 8F91      		pop r24
 284 004e 7F91      		pop r23
 285 0050 6F91      		pop r22
 286 0052 5F91      		pop r21
 287 0054 4F91      		pop r20
 288 0056 3F91      		pop r19
 289 0058 2F91      		pop r18
 290 005a 0F90      		pop r0
 291 005c 0BBE      		out 91-32,r0
 292 005e 0F90      		pop r0
 293 0060 0FBE      		out __SREG__,r0
 294 0062 0F90      		pop r0
 295 0064 1F90      		pop __zero_reg__
 296 0066 1895      		reti
 297               	.LFE46:
 299               		.section	.text.DebugChar,"ax",@progbits
 300               	.global	DebugChar
 302               	DebugChar:
 303               	.LFB62:
 304               	.LSM34:
 305               	.LVL6:
 306               	/* prologue: function */
 307               	/* frame size = 0 */
 308 0000 982F      		mov r25,r24
 309               	.LSM35:
 310 0002 8091 0000 		lds r24,DebugMode
 311               	.LVL7:
 312 0006 8130      		cpi r24,lo8(1)
 313 0008 01F4      		brne .L23
 314               	.LSM36:
 315 000a 892F      		mov r24,r25
 316 000c 0E94 0000 		call uart1_putc
 317               	.LVL8:
 318               	.L23:
 319 0010 0895      		ret
 320               	.LFE62:
 322               		.section	.text.PrintHex,"ax",@progbits
 323               	.global	PrintHex
 325               	PrintHex:
 326               	.LFB64:
 327               	.LSM37:
 328               	.LVL9:
 329 0000 1F93      		push r17
 330               	/* prologue: function */
 331               	/* frame size = 0 */
 332 0002 182F      		mov r17,r24
 333               	.LSM38:
 334 0004 8295      		swap r24
 335               	.LVL10:
 336 0006 8F70      		andi r24,lo8(15)
 337 0008 8A30      		cpi r24,lo8(10)
 338 000a 00F0      		brlo .L25
 339               	.LSM39:
 340 000c 895A      		subi r24,lo8(-(87))
 341 000e 00C0      		rjmp .L30
 342               	.L25:
 343               	.LSM40:
 344 0010 805D      		subi r24,lo8(-(48))
 345               	.L30:
 346 0012 0E94 0000 		call DebugChar
 347               	.LSM41:
 348 0016 812F      		mov r24,r17
 349 0018 90E0      		ldi r25,lo8(0)
 350               	.LVL11:
 351 001a 8F70      		andi r24,lo8(15)
 352 001c 9070      		andi r25,hi8(15)
 353               	.LVL12:
 354 001e 212F      		mov r18,r17
 355 0020 2F70      		andi r18,lo8(15)
 356 0022 0A97      		sbiw r24,10
 357 0024 04F0      		brlt .L27
 358               	.LSM42:
 359 0026 822F      		mov r24,r18
 360               	.LVL13:
 361 0028 895A      		subi r24,lo8(-(87))
 362 002a 00C0      		rjmp .L31
 363               	.LVL14:
 364               	.L27:
 365               	.LSM43:
 366 002c 822F      		mov r24,r18
 367               	.LVL15:
 368 002e 805D      		subi r24,lo8(-(48))
 369               	.L31:
 370 0030 0E94 0000 		call DebugChar
 371               	.LVL16:
 372               	.LSM44:
 373 0034 80E2      		ldi r24,lo8(32)
 374 0036 0E94 0000 		call DebugChar
 375               	/* epilogue start */
 376               	.LSM45:
 377 003a 1F91      		pop r17
 378               	.LVL17:
 379 003c 0895      		ret
 380               	.LFE64:
 382               		.data
 383               	.LC5:
 384 0064 0D0A 4461 		.string	"\r\nData:\r\n"
 384      7461 3A0D 
 384      0A00 
 385               	.LC6:
 386 006e 0D0A 00   		.string	"\r\n"
 387               		.section	.text.device_enqueue,"ax",@progbits
 388               	.global	device_enqueue
 390               	device_enqueue:
 391               	.LFB52:
 392               	.LSM46:
 393               	.LVL18:
 394 0000 EF92      		push r14
 395 0002 FF92      		push r15
 396 0004 0F93      		push r16
 397 0006 1F93      		push r17
 398 0008 CF93      		push r28
 399 000a DF93      		push r29
 400               	/* prologue: function */
 401               	/* frame size = 0 */
 402 000c 7C01      		movw r14,r24
 403 000e 8B01      		movw r16,r22
 404               	.LSM47:
 405 0010 80E0      		ldi r24,lo8(.LC5)
 406 0012 90E0      		ldi r25,hi8(.LC5)
 407               	.LVL19:
 408 0014 0E94 0000 		call Debug
 409               	.LVL20:
 410 0018 C0E0      		ldi r28,lo8(0)
 411 001a D0E0      		ldi r29,hi8(0)
 412               	.LVL21:
 413 001c 00C0      		rjmp .L33
 414               	.L34:
 415               	.LBB78:
 416               	.LSM48:
 417 001e 1092 0000 		sts WatchdogTicks,__zero_reg__
 418               	.LSM49:
 419 0022 F701      		movw r30,r14
 420 0024 EC0F      		add r30,r28
 421 0026 FD1F      		adc r31,r29
 422 0028 8081      		ld r24,Z
 423 002a 0E94 0000 		call uart1_putc
 424               	.LSM50:
 425 002e 2196      		adiw r28,1
 426               	.L33:
 427 0030 C017      		cp r28,r16
 428 0032 D107      		cpc r29,r17
 429 0034 04F0      		brlt .L34
 430               	.LBE78:
 431               	.LSM51:
 432 0036 80E0      		ldi r24,lo8(.LC6)
 433 0038 90E0      		ldi r25,hi8(.LC6)
 434 003a 0E94 0000 		call Debug
 435               	/* epilogue start */
 436               	.LSM52:
 437 003e DF91      		pop r29
 438 0040 CF91      		pop r28
 439               	.LVL22:
 440 0042 1F91      		pop r17
 441 0044 0F91      		pop r16
 442               	.LVL23:
 443 0046 FF90      		pop r15
 444 0048 EF90      		pop r14
 445               	.LVL24:
 446 004a 0895      		ret
 447               	.LFE52:
 449               		.data
 450               	.LC7:
 451 0071 4572 726F 		.string	"Error writing Pipe\r\n"
 451      7220 7772 
 451      6974 696E 
 451      6720 5069 
 451      7065 0D0A 
 452               	.LC8:
 453 0086 4572 726F 		.string	"Error reading Pipe\r\n"
 453      7220 7265 
 453      6164 696E 
 453      6720 5069 
 453      7065 0D0A 
 454               		.section	.text.SendDataToAndFromModem,"ax",@progbits
 455               	.global	SendDataToAndFromModem
 457               	SendDataToAndFromModem:
 458               	.LFB61:
 459               	.LSM53:
 460 0000 AF92      		push r10
 461 0002 BF92      		push r11
 462 0004 CF92      		push r12
 463 0006 DF92      		push r13
 464 0008 EF92      		push r14
 465 000a FF92      		push r15
 466 000c 0F93      		push r16
 467 000e 1F93      		push r17
 468 0010 DF93      		push r29
 469 0012 CF93      		push r28
 470 0014 CDB7      		in r28,__SP_L__
 471 0016 DEB7      		in r29,__SP_H__
 472 0018 C050      		subi r28,lo8(-(-256))
 473 001a D140      		sbci r29,hi8(-(-256))
 474 001c 0FB6      		in __tmp_reg__,__SREG__
 475 001e F894      		cli
 476 0020 DEBF      		out __SP_H__,r29
 477 0022 0FBE      		out __SREG__,__tmp_reg__
 478 0024 CDBF      		out __SP_L__,r28
 479               	/* prologue: function */
 480               	/* frame size = 256 */
 481               	.LSM54:
 482 0026 ADB6      		in r10,__SP_L__
 483 0028 BEB6      		in r11,__SP_H__
 484               	.LSM55:
 485 002a 8091 0000 		lds r24,USB_HostState
 486 002e 8C30      		cpi r24,lo8(12)
 487 0030 01F0      		breq .+2
 488 0032 00C0      		rjmp .L45
 489               	.LSM56:
 490 0034 82E0      		ldi r24,lo8(2)
 491 0036 8093 A700 		sts 167,r24
 492               	.LSM57:
 493 003a 8091 AA00 		lds r24,170
 494 003e 8F7C      		andi r24,lo8(-49)
 495 0040 8062      		ori r24,lo8(32)
 496 0042 8093 AA00 		sts 170,r24
 497               	.LSM58:
 498 0046 8091 A900 		lds r24,169
 499 004a 8F7B      		andi r24,lo8(-65)
 500 004c 8093 A900 		sts 169,r24
 501               	.LSM59:
 502 0050 0E94 0000 		call modem_TxBufferEmpty
 503 0054 8823      		tst r24
 504 0056 01F4      		brne .L38
 505               	.LSM60:
 506 0058 8091 A600 		lds r24,166
 507 005c 85FD      		sbrc r24,5
 508 005e 00C0      		rjmp .L39
 509               	.LBB79:
 510               	.LSM61:
 511 0060 8091 A600 		lds r24,166
 512               	.LVL25:
 513 0064 982F      		mov r25,r24
 514 0066 9B7F      		andi r25,lo8(-5)
 515 0068 9093 A600 		sts 166,r25
 516 006c 8F77      		andi r24,lo8(127)
 517 006e 8093 A600 		sts 166,r24
 518               	.LBE79:
 519               	.LSM62:
 520 0072 0E94 0000 		call Pipe_WaitUntilReady
 521               	.LVL26:
 522 0076 8823      		tst r24
 523 0078 01F0      		breq .+2
 524 007a 00C0      		rjmp .L44
 525               	.L39:
 526               	.LSM63:
 527 007c 8E01      		movw r16,r28
 528 007e 0F5F      		subi r16,lo8(-(1))
 529 0080 1F4F      		sbci r17,hi8(-(1))
 530 0082 C801      		movw r24,r16
 531 0084 60E0      		ldi r22,lo8(0)
 532 0086 70E0      		ldi r23,hi8(0)
 533 0088 0E94 0000 		call modem_getTxBuffer
 534 008c BC01      		movw r22,r24
 535               	.LVL27:
 536               	.LSM64:
 537 008e C801      		movw r24,r16
 538 0090 0E94 0000 		call Pipe_Write_Stream_LE
 539               	.LVL28:
 540 0094 8823      		tst r24
 541 0096 01F0      		breq .L40
 542               	.LSM65:
 543 0098 80E0      		ldi r24,lo8(.LC7)
 544 009a 90E0      		ldi r25,hi8(.LC7)
 545 009c 0E94 0000 		call Debug
 546               	.L40:
 547               	.LBB80:
 548               	.LSM66:
 549 00a0 8091 A600 		lds r24,166
 550               	.LVL29:
 551 00a4 982F      		mov r25,r24
 552 00a6 9B7F      		andi r25,lo8(-5)
 553 00a8 9093 A600 		sts 166,r25
 554 00ac 8F77      		andi r24,lo8(127)
 555 00ae 8093 A600 		sts 166,r24
 556               	.L38:
 557               	.LBE80:
 558               	.LSM67:
 559 00b2 8091 A900 		lds r24,169
 560               	.LVL30:
 561 00b6 8064      		ori r24,lo8(64)
 562 00b8 8093 A900 		sts 169,r24
 563               	.LSM68:
 564 00bc 81E0      		ldi r24,lo8(1)
 565 00be 8093 A700 		sts 167,r24
 566               	.LSM69:
 567 00c2 8091 AA00 		lds r24,170
 568 00c6 8F7C      		andi r24,lo8(-49)
 569 00c8 8061      		ori r24,lo8(16)
 570 00ca 8093 AA00 		sts 170,r24
 571               	.LSM70:
 572 00ce 8091 A900 		lds r24,169
 573 00d2 8F7B      		andi r24,lo8(-65)
 574 00d4 8093 A900 		sts 169,r24
 575               	.LSM71:
 576 00d8 8091 A600 		lds r24,166
 577 00dc 80FF      		sbrs r24,0
 578 00de 00C0      		rjmp .L41
 579               	.LSM72:
 580 00e0 8091 A900 		lds r24,169
 581 00e4 8064      		ori r24,lo8(64)
 582 00e6 8093 A900 		sts 169,r24
 583               	.LSM73:
 584 00ea 8091 A600 		lds r24,166
 585 00ee 85FF      		sbrs r24,5
 586 00f0 00C0      		rjmp .L41
 587 00f2 DDB6      		in r13,__SP_L__
 588 00f4 CEB6      		in r12,__SP_H__
 589               	.LBB81:
 590               	.LSM74:
 591 00f6 0091 F600 		lds r16,246
 592 00fa 1091 F700 		lds r17,(246)+1
 593               	.LVL31:
 594 00fe 0F3F      		cpi r16,255
 595 0100 1105      		cpc r17,__zero_reg__
 596 0102 01F0      		breq .L42
 597 0104 00F0      		brlo .L42
 598 0106 0FEF      		ldi r16,lo8(255)
 599 0108 10E0      		ldi r17,hi8(255)
 600               	.L42:
 601               	.LSM75:
 602 010a 8DB7      		in r24,__SP_L__
 603 010c 9EB7      		in r25,__SP_H__
 604 010e 801B      		sub r24,r16
 605 0110 910B      		sbc r25,r17
 606 0112 0FB6      		in __tmp_reg__,__SREG__
 607 0114 F894      		cli
 608 0116 9EBF      		out __SP_H__,r25
 609 0118 0FBE      		out __SREG__,__tmp_reg__
 610 011a 8DBF      		out __SP_L__,r24
 611 011c 2DB7      		in r18,__SP_L__
 612 011e 3EB7      		in r19,__SP_H__
 613 0120 2F5F      		subi r18,lo8(-(1))
 614 0122 3F4F      		sbci r19,hi8(-(1))
 615               	.LSM76:
 616 0124 F22E      		mov r15,r18
 617 0126 E32E      		mov r14,r19
 618 0128 C901      		movw r24,r18
 619 012a B801      		movw r22,r16
 620 012c 0E94 0000 		call Pipe_Read_Stream_LE
 621 0130 8823      		tst r24
 622 0132 01F0      		breq .L43
 623               	.LSM77:
 624 0134 80E0      		ldi r24,lo8(.LC8)
 625 0136 90E0      		ldi r25,hi8(.LC8)
 626 0138 0E94 0000 		call Debug
 627               	.L43:
 628               	.LBB82:
 629               	.LSM78:
 630 013c 8091 A600 		lds r24,166
 631               	.LVL32:
 632 0140 982F      		mov r25,r24
 633 0142 9E7F      		andi r25,lo8(-2)
 634 0144 9093 A600 		sts 166,r25
 635 0148 8F77      		andi r24,lo8(127)
 636 014a 8093 A600 		sts 166,r24
 637               	.LBE82:
 638               	.LSM79:
 639 014e 8F2D      		mov r24,r15
 640               	.LVL33:
 641 0150 9E2D      		mov r25,r14
 642 0152 B801      		movw r22,r16
 643 0154 0E94 0000 		call modem_putRxBuffer
 644 0158 2D2D      		mov r18,r13
 645 015a 3C2D      		mov r19,r12
 646 015c C901      		movw r24,r18
 647 015e 0FB6      		in __tmp_reg__,__SREG__
 648 0160 F894      		cli
 649 0162 9EBF      		out __SP_H__,r25
 650 0164 0FBE      		out __SREG__,__tmp_reg__
 651 0166 8DBF      		out __SP_L__,r24
 652               	.L41:
 653               	.LBE81:
 654               	.LSM80:
 655 0168 8091 A900 		lds r24,169
 656 016c 8064      		ori r24,lo8(64)
 657 016e 8093 A900 		sts 169,r24
 658               	.LSM81:
 659 0172 83E0      		ldi r24,lo8(3)
 660 0174 8093 A700 		sts 167,r24
 661               	.LSM82:
 662 0178 8091 A900 		lds r24,169
 663 017c 8F7B      		andi r24,lo8(-65)
 664 017e 8093 A900 		sts 169,r24
 665               	.LSM83:
 666 0182 8091 A600 		lds r24,166
 667 0186 80FF      		sbrs r24,0
 668 0188 00C0      		rjmp .L44
 669               	.LBB83:
 670               	.LSM84:
 671 018a 8091 A600 		lds r24,166
 672               	.LVL34:
 673 018e 982F      		mov r25,r24
 674 0190 9E7F      		andi r25,lo8(-2)
 675 0192 9093 A600 		sts 166,r25
 676 0196 8F77      		andi r24,lo8(127)
 677 0198 8093 A600 		sts 166,r24
 678               	.L44:
 679               	.LBE83:
 680               	.LSM85:
 681 019c 8091 A900 		lds r24,169
 682               	.LVL35:
 683 01a0 8064      		ori r24,lo8(64)
 684 01a2 8093 A900 		sts 169,r24
 685               	.L45:
 686               	.LSM86:
 687 01a6 0FB6      		in __tmp_reg__,__SREG__
 688 01a8 F894      		cli
 689 01aa BEBE      		out __SP_H__,r11
 690 01ac 0FBE      		out __SREG__,__tmp_reg__
 691 01ae ADBE      		out __SP_L__,r10
 692               	/* epilogue start */
 693 01b0 C050      		subi r28,lo8(-(256))
 694 01b2 DF4F      		sbci r29,hi8(-(256))
 695 01b4 0FB6      		in __tmp_reg__,__SREG__
 696 01b6 F894      		cli
 697 01b8 DEBF      		out __SP_H__,r29
 698 01ba 0FBE      		out __SREG__,__tmp_reg__
 699 01bc CDBF      		out __SP_L__,r28
 700 01be CF91      		pop r28
 701 01c0 DF91      		pop r29
 702 01c2 1F91      		pop r17
 703 01c4 0F91      		pop r16
 704               	.LVL36:
 705 01c6 FF90      		pop r15
 706 01c8 EF90      		pop r14
 707 01ca DF90      		pop r13
 708 01cc CF90      		pop r12
 709 01ce BF90      		pop r11
 710 01d0 AF90      		pop r10
 711 01d2 0895      		ret
 712               	.LFE61:
 714               		.data
 715               	.LC9:
 716 009b 5761 6974 		.string	"Waiting for device removal\r\n"
 716      696E 6720 
 716      666F 7220 
 716      6465 7669 
 716      6365 2072 
 717               	.LC10:
 718 00b8 5365 6E64 		.string	"Sending configuration command\r\n"
 718      696E 6720 
 718      636F 6E66 
 718      6967 7572 
 718      6174 696F 
 719               	.LC11:
 720 00d8 436F 6E74 		.string	"Control Error (Set Configuration).\r\n"
 720      726F 6C20 
 720      4572 726F 
 720      7220 2853 
 720      6574 2043 
 721               	.LC12:
 722 00fd 4C6F 6F6B 		.string	"Looking for modem device..."
 722      696E 6720 
 722      666F 7220 
 722      6D6F 6465 
 722      6D20 6465 
 723               	.LC13:
 724 0119 436F 6E74 		.string	"Control Error (Get Configuration).\r\n"
 724      726F 6C20 
 724      4572 726F 
 724      7220 2847 
 724      6574 2043 
 725               	.LC14:
 726 013e 4E6F 7420 		.string	"Not a modem device\r\n"
 726      6120 6D6F 
 726      6465 6D20 
 726      6465 7669 
 726      6365 0D0A 
 727               	.LC15:
 728 0153 4344 4320 		.string	"CDC Device Enumerated\r\n"
 728      4465 7669 
 728      6365 2045 
 728      6E75 6D65 
 728      7261 7465 
 729               		.section	.text.CDC_Host_Task,"ax",@progbits
 730               	.global	CDC_Host_Task
 732               	CDC_Host_Task:
 733               	.LFB60:
 734               	.LSM87:
 735               	/* prologue: function */
 736               	/* frame size = 0 */
 737               	.LSM88:
 738 0000 8091 0000 		lds r24,USB_HostState
 739 0004 8823      		tst r24
 740 0006 01F0      		breq .L48
 741 0008 8B30      		cpi r24,lo8(11)
 742 000a 01F0      		breq .+2
 743 000c 00C0      		rjmp .L56
 744 000e 00C0      		rjmp .L60
 745               	.L48:
 746               	.LSM89:
 747 0010 80E0      		ldi r24,lo8(.LC9)
 748 0012 90E0      		ldi r25,hi8(.LC9)
 749 0014 0E94 0000 		call Debug
 750               	.L50:
 751               	.LSM90:
 752 0018 8091 0000 		lds r24,USB_HostState
 753 001c 8823      		tst r24
 754 001e 01F0      		breq .L50
 755 0020 0895      		ret
 756               	.L60:
 757               	.LSM91:
 758 0022 80E0      		ldi r24,lo8(.LC10)
 759 0024 90E0      		ldi r25,hi8(.LC10)
 760 0026 0E94 0000 		call Debug
 761               	.LSM92:
 762 002a A0E0      		ldi r26,lo8(USB_ControlRequest)
 763 002c B0E0      		ldi r27,hi8(USB_ControlRequest)
 764 002e E0E0      		ldi r30,lo8(C.44.3092)
 765 0030 F0E0      		ldi r31,hi8(C.44.3092)
 766 0032 88E0      		ldi r24,lo8(8)
 767               	.L51:
 768 0034 0190      		ld r0,Z+
 769 0036 0D92      		st X+,r0
 770 0038 8150      		subi r24,lo8(-(-1))
 771 003a 01F4      		brne .L51
 772               	.LSM93:
 773 003c 1092 A700 		sts 167,__zero_reg__
 774               	.LSM94:
 775 0040 80E0      		ldi r24,lo8(0)
 776 0042 90E0      		ldi r25,hi8(0)
 777 0044 0E94 0000 		call USB_Host_SendControlRequest
 778 0048 8823      		tst r24
 779 004a 01F0      		breq .L52
 780               	.LSM95:
 781 004c 80E0      		ldi r24,lo8(.LC11)
 782 004e 90E0      		ldi r25,hi8(.LC11)
 783 0050 0E94 0000 		call Debug
 784               	.L52:
 785               	.LSM96:
 786 0054 80E0      		ldi r24,lo8(.LC12)
 787 0056 90E0      		ldi r25,hi8(.LC12)
 788 0058 0E94 0000 		call Debug
 789               	.LSM97:
 790 005c 0E94 0000 		call ProcessConfigurationDescriptor
 791 0060 8823      		tst r24
 792               	.LVL37:
 793 0062 01F0      		breq .L53
 794               	.LSM98:
 795 0064 8130      		cpi r24,lo8(1)
 796 0066 01F4      		brne .L54
 797               	.LSM99:
 798 0068 80E0      		ldi r24,lo8(.LC13)
 799 006a 90E0      		ldi r25,hi8(.LC13)
 800               	.LVL38:
 801 006c 00C0      		rjmp .L59
 802               	.LVL39:
 803               	.L54:
 804               	.LSM100:
 805 006e 80E0      		ldi r24,lo8(.LC14)
 806 0070 90E0      		ldi r25,hi8(.LC14)
 807               	.LVL40:
 808               	.L59:
 809 0072 0E94 0000 		call Debug
 810               	.LBB84:
 811               	.LBB85:
 812               	.LSM101:
 813 0076 8BB1      		in r24,43-32
 814 0078 8F70      		andi r24,lo8(15)
 815 007a 8069      		ori r24,lo8(-112)
 816 007c 8BB9      		out 43-32,r24
 817               	.LBE85:
 818               	.LBE84:
 819               	.LSM102:
 820 007e 1092 0000 		sts USB_HostState,__zero_reg__
 821 0082 0895      		ret
 822               	.LVL41:
 823               	.L53:
 824               	.LSM103:
 825 0084 80E0      		ldi r24,lo8(.LC15)
 826 0086 90E0      		ldi r25,hi8(.LC15)
 827               	.LVL42:
 828 0088 0E94 0000 		call Debug
 829               	.LSM104:
 830 008c 8CE0      		ldi r24,lo8(12)
 831 008e 8093 0000 		sts USB_HostState,r24
 832               	.L56:
 833 0092 0895      		ret
 834               	.LFE60:
 836               		.data
 837               	.LC16:
 838 016b 486F 7374 		.string	"Host Mode Error\r\n"
 838      204D 6F64 
 838      6520 4572 
 838      726F 720D 
 838      0A00 
 839               		.section	.text.EVENT_USB_Host_HostError,"ax",@progbits
 840               	.global	EVENT_USB_Host_HostError
 842               	EVENT_USB_Host_HostError:
 843               	.LFB58:
 844               	.LSM105:
 845               	.LVL43:
 846               	/* prologue: function */
 847               	/* frame size = 0 */
 848               	.LSM106:
 849 0000 0E94 0000 		call USB_ShutDown
 850               	.LVL44:
 851               	.LSM107:
 852 0004 80E0      		ldi r24,lo8(.LC16)
 853 0006 90E0      		ldi r25,hi8(.LC16)
 854 0008 0E94 0000 		call Debug
 855               	.LBB86:
 856               	.LBB87:
 857               	.LSM108:
 858 000c 8BB1      		in r24,43-32
 859 000e 8F70      		andi r24,lo8(15)
 860 0010 8069      		ori r24,lo8(-112)
 861 0012 8BB9      		out 43-32,r24
 862               	.L62:
 863 0014 00C0      		rjmp .L62
 864               	.LBE87:
 865               	.LBE86:
 866               	.LFE58:
 868               		.data
 869               	.LC17:
 870 017d 5050 5000 		.string	"PPP"
 871               	.LC18:
 872 0181 5374 6172 		.string	"Starting PPP\r\n"
 872      7469 6E67 
 872      2050 5050 
 872      0D0A 00
 873               	.LC19:
 874 0190 5365 6E64 		.string	"Sending command: "
 874      696E 6720 
 874      636F 6D6D 
 874      616E 643A 
 874      2000 
 875               		.section	.text.Dial,"ax",@progbits
 876               	.global	Dial
 878               	Dial:
 879               	.LFB54:
 880               	.LSM109:
 881 0000 0F93      		push r16
 882 0002 1F93      		push r17
 883 0004 DF93      		push r29
 884 0006 CF93      		push r28
 885 0008 CDB7      		in r28,__SP_L__
 886 000a DEB7      		in r29,__SP_H__
 887 000c C054      		subi r28,lo8(-(-64))
 888 000e D040      		sbci r29,hi8(-(-64))
 889 0010 0FB6      		in __tmp_reg__,__SREG__
 890 0012 F894      		cli
 891 0014 DEBF      		out __SP_H__,r29
 892 0016 0FBE      		out __SREG__,__tmp_reg__
 893 0018 CDBF      		out __SP_L__,r28
 894               	/* prologue: function */
 895               	/* frame size = 64 */
 896               	.LSM110:
 897 001a 8091 0000 		lds r24,USB_HostState
 898 001e 8C30      		cpi r24,lo8(12)
 899 0020 01F0      		breq .+2
 900 0022 00C0      		rjmp .L69
 901               	.L72:
 902               	.LSM111:
 903 0024 0E94 0000 		call modem_getc
 904               	.LSM112:
 905 0028 90FD      		sbrc r25,0
 906 002a 00C0      		rjmp .L66
 907               	.LVL45:
 908               	.LSM113:
 909 002c 0E94 0000 		call DebugChar
 910               	.LVL46:
 911 0030 00C0      		rjmp .L72
 912               	.LVL47:
 913               	.L66:
 914               	.LSM114:
 915 0032 8091 0000 		lds r24,TIME
 916 0036 9091 0000 		lds r25,(TIME)+1
 917               	.LVL48:
 918 003a 8536      		cpi r24,101
 919 003c 9105      		cpc r25,__zero_reg__
 920 003e 00F0      		brlo .L69
 921               	.LSM115:
 922 0040 1092 0000 		sts (TIME)+1,__zero_reg__
 923 0044 1092 0000 		sts TIME,__zero_reg__
 924               	.LSM116:
 925 0048 8091 0000 		lds r24,DialSteps
 926 004c E82F      		mov r30,r24
 927 004e F0E0      		ldi r31,lo8(0)
 928 0050 EE0F      		lsl r30
 929 0052 FF1F      		rol r31
 930 0054 E050      		subi r30,lo8(-(DialCommands))
 931 0056 F040      		sbci r31,hi8(-(DialCommands))
 932 0058 6081      		ld r22,Z
 933 005a 7181      		ldd r23,Z+1
 934 005c 8F5F      		subi r24,lo8(-(1))
 935 005e 8093 0000 		sts DialSteps,r24
 936 0062 8E01      		movw r16,r28
 937 0064 0F5F      		subi r16,lo8(-(1))
 938 0066 1F4F      		sbci r17,hi8(-(1))
 939 0068 C801      		movw r24,r16
 940 006a 0E94 0000 		call strcpy
 941               	.LSM117:
 942 006e C801      		movw r24,r16
 943 0070 60E0      		ldi r22,lo8(.LC17)
 944 0072 70E0      		ldi r23,hi8(.LC17)
 945 0074 0E94 0000 		call strcmp
 946 0078 0097      		sbiw r24,0
 947 007a 01F4      		brne .L68
 948               	.LSM118:
 949 007c 80E0      		ldi r24,lo8(.LC18)
 950 007e 90E0      		ldi r25,hi8(.LC18)
 951 0080 0E94 0000 		call Debug
 952               	.LSM119:
 953 0084 1092 0000 		sts DialSteps,__zero_reg__
 954               	.LSM120:
 955 0088 81E0      		ldi r24,lo8(1)
 956 008a 8093 0000 		sts ConnectedState,r24
 957 008e 00C0      		rjmp .L69
 958               	.L68:
 959               	.LSM121:
 960 0090 80E0      		ldi r24,lo8(.LC19)
 961 0092 90E0      		ldi r25,hi8(.LC19)
 962 0094 0E94 0000 		call Debug
 963               	.LSM122:
 964 0098 C801      		movw r24,r16
 965 009a 0E94 0000 		call Debug
 966               	.LSM123:
 967 009e C801      		movw r24,r16
 968 00a0 0E94 0000 		call modem_puts
 969               	.L69:
 970               	/* epilogue start */
 971               	.LSM124:
 972 00a4 C05C      		subi r28,lo8(-(64))
 973 00a6 DF4F      		sbci r29,hi8(-(64))
 974 00a8 0FB6      		in __tmp_reg__,__SREG__
 975 00aa F894      		cli
 976 00ac DEBF      		out __SP_H__,r29
 977 00ae 0FBE      		out __SREG__,__tmp_reg__
 978 00b0 CDBF      		out __SP_L__,r28
 979 00b2 CF91      		pop r28
 980 00b4 DF91      		pop r29
 981 00b6 1F91      		pop r17
 982 00b8 0F91      		pop r16
 983 00ba 0895      		ret
 984               	.LFE54:
 986               		.data
 987               	.LC20:
 988 01a2 476F 7420 		.string	"Got non-PPP packet\r\n"
 988      6E6F 6E2D 
 988      5050 5020 
 988      7061 636B 
 988      6574 0D0A 
 989               	.LC21:
 990 01b7 0D0A 5265 		.string	"\r\nReceive:\r\n"
 990      6365 6976 
 990      653A 0D0A 
 990      00
 991               	.LC22:
 992 01c4 202E 2000 		.string	" . "
 993               	.LC23:
 994 01c8 0D0A 4465 		.string	"\r\nDebug on\r\n"
 994      6275 6720 
 994      6F6E 0D0A 
 994      00
 995               	.LC24:
 996 01d5 0D0A 4465 		.string	"\r\nDebug off\r\n"
 996      6275 6720 
 996      6F66 660D 
 996      0A00 
 997               		.section	.text.TCPIPTask,"ax",@progbits
 998               	.global	TCPIPTask
 1000               	TCPIPTask:
 1001               	.LFB51:
 1002               	.LSM125:
 1003 0000 CF92      		push r12
 1004 0002 DF92      		push r13
 1005 0004 EF92      		push r14
 1006 0006 FF92      		push r15
 1007 0008 0F93      		push r16
 1008 000a 1F93      		push r17
 1009 000c CF93      		push r28
 1010 000e DF93      		push r29
 1011               	/* prologue: function */
 1012               	/* frame size = 0 */
 1013               	.LSM126:
 1014 0010 0E94 0000 		call network_read
 1015 0014 9093 0000 		sts (uip_len)+1,r25
 1016 0018 8093 0000 		sts uip_len,r24
 1017               	.LVL49:
 1018               	.LSM127:
 1019 001c 2FEF      		ldi r18,hi8(-1)
 1020 001e 8F3F      		cpi r24,lo8(-1)
 1021 0020 9207      		cpc r25,r18
 1022 0022 01F4      		brne .L74
 1023               	.LSM128:
 1024 0024 80E0      		ldi r24,lo8(.LC20)
 1025 0026 90E0      		ldi r25,hi8(.LC20)
 1026               	.LVL50:
 1027 0028 0E94 0000 		call Debug
 1028               	.LSM129:
 1029 002c 1092 0000 		sts (TIME)+1,__zero_reg__
 1030 0030 1092 0000 		sts TIME,__zero_reg__
 1031               	.LSM130:
 1032 0034 1092 0000 		sts ConnectedState,__zero_reg__
 1033 0038 00C0      		rjmp .L90
 1034               	.LVL51:
 1035               	.L74:
 1036               	.LSM131:
 1037 003a 892B      		or r24,r25
 1038 003c 01F4      		brne .+2
 1039 003e 00C0      		rjmp .L76
 1040               	.LSM132:
 1041 0040 80E0      		ldi r24,lo8(.LC21)
 1042 0042 90E0      		ldi r25,hi8(.LC21)
 1043               	.LVL52:
 1044 0044 0E94 0000 		call Debug
 1045 0048 20E0      		ldi r18,lo8(uip_buf)
 1046 004a C22E      		mov r12,r18
 1047 004c 20E0      		ldi r18,hi8(uip_buf)
 1048 004e D22E      		mov r13,r18
 1049 0050 EE24      		clr r14
 1050 0052 FF24      		clr r15
 1051               	.LVL53:
 1052 0054 00C0      		rjmp .L77
 1053               	.LVL54:
 1054               	.L84:
 1055               	.LSM133:
 1056 0056 8601      		movw r16,r12
 1057 0058 C0E0      		ldi r28,lo8(0)
 1058 005a D0E0      		ldi r29,hi8(0)
 1059               	.LVL55:
 1060               	.L79:
 1061               	.LSM134:
 1062 005c 9E01      		movw r18,r28
 1063 005e 2E0D      		add r18,r14
 1064 0060 3F1D      		adc r19,r15
 1065 0062 8091 0000 		lds r24,uip_len
 1066 0066 9091 0000 		lds r25,(uip_len)+1
 1067 006a 2817      		cp r18,r24
 1068 006c 3907      		cpc r19,r25
 1069 006e 00F4      		brsh .L78
 1070               	.LSM135:
 1071 0070 F801      		movw r30,r16
 1072 0072 8191      		ld r24,Z+
 1073 0074 8F01      		movw r16,r30
 1074 0076 0E94 0000 		call PrintHex
 1075               	.LSM136:
 1076 007a 2196      		adiw r28,1
 1077 007c C031      		cpi r28,16
 1078 007e D105      		cpc r29,__zero_reg__
 1079 0080 01F4      		brne .L79
 1080               	.L78:
 1081               	.LSM137:
 1082 0082 80E0      		ldi r24,lo8(.LC6)
 1083 0084 90E0      		ldi r25,hi8(.LC6)
 1084 0086 0E94 0000 		call Debug
 1085 008a 8601      		movw r16,r12
 1086 008c C0E0      		ldi r28,lo8(0)
 1087 008e D0E0      		ldi r29,hi8(0)
 1088               	.LVL56:
 1089               	.L83:
 1090               	.LSM138:
 1091 0090 9E01      		movw r18,r28
 1092 0092 2E0D      		add r18,r14
 1093 0094 3F1D      		adc r19,r15
 1094 0096 8091 0000 		lds r24,uip_len
 1095 009a 9091 0000 		lds r25,(uip_len)+1
 1096 009e 2817      		cp r18,r24
 1097 00a0 3907      		cpc r19,r25
 1098 00a2 00F4      		brsh .L80
 1099               	.LSM139:
 1100 00a4 F801      		movw r30,r16
 1101 00a6 8081      		ld r24,Z
 1102 00a8 8052      		subi r24,lo8(-(-32))
 1103 00aa 8F35      		cpi r24,lo8(95)
 1104 00ac 00F4      		brsh .L81
 1105               	.LSM140:
 1106 00ae 80E2      		ldi r24,lo8(32)
 1107 00b0 0E94 0000 		call DebugChar
 1108               	.LSM141:
 1109 00b4 F801      		movw r30,r16
 1110 00b6 8081      		ld r24,Z
 1111 00b8 0E94 0000 		call DebugChar
 1112               	.LSM142:
 1113 00bc 80E2      		ldi r24,lo8(32)
 1114 00be 0E94 0000 		call DebugChar
 1115 00c2 00C0      		rjmp .L82
 1116               	.L81:
 1117               	.LSM143:
 1118 00c4 80E0      		ldi r24,lo8(.LC22)
 1119 00c6 90E0      		ldi r25,hi8(.LC22)
 1120 00c8 0E94 0000 		call Debug
 1121               	.L82:
 1122               	.LSM144:
 1123 00cc 2196      		adiw r28,1
 1124 00ce 0F5F      		subi r16,lo8(-(1))
 1125 00d0 1F4F      		sbci r17,hi8(-(1))
 1126 00d2 C031      		cpi r28,16
 1127 00d4 D105      		cpc r29,__zero_reg__
 1128 00d6 01F4      		brne .L83
 1129               	.L80:
 1130               	.LSM145:
 1131 00d8 80E0      		ldi r24,lo8(.LC6)
 1132 00da 90E0      		ldi r25,hi8(.LC6)
 1133 00dc 0E94 0000 		call Debug
 1134               	.LSM146:
 1135 00e0 80E1      		ldi r24,lo8(16)
 1136 00e2 90E0      		ldi r25,hi8(16)
 1137 00e4 E80E      		add r14,r24
 1138 00e6 F91E      		adc r15,r25
 1139 00e8 C80E      		add r12,r24
 1140 00ea D91E      		adc r13,r25
 1141               	.L77:
 1142 00ec 8091 0000 		lds r24,uip_len
 1143 00f0 9091 0000 		lds r25,(uip_len)+1
 1144 00f4 E816      		cp r14,r24
 1145 00f6 F906      		cpc r15,r25
 1146 00f8 00F4      		brsh .+2
 1147 00fa 00C0      		rjmp .L84
 1148               	.LSM147:
 1149 00fc 81E0      		ldi r24,lo8(1)
 1150 00fe 00C0      		rjmp .L95
 1151               	.LVL57:
 1152               	.L76:
 1153               	.LSM148:
 1154 0100 80E0      		ldi r24,lo8(periodic_timer)
 1155 0102 90E0      		ldi r25,hi8(periodic_timer)
 1156               	.LVL58:
 1157 0104 0E94 0000 		call timer_expired
 1158 0108 892B      		or r24,r25
 1159 010a 01F0      		breq .L85
 1160               	.LSM149:
 1161 010c 80E0      		ldi r24,lo8(periodic_timer)
 1162 010e 90E0      		ldi r25,hi8(periodic_timer)
 1163 0110 0E94 0000 		call timer_reset
 1164               	.LBB88:
 1165               	.LSM150:
 1166 0114 80E0      		ldi r24,lo8(uip_conns)
 1167 0116 90E0      		ldi r25,hi8(uip_conns)
 1168 0118 9093 0000 		sts (uip_conn)+1,r25
 1169 011c 8093 0000 		sts uip_conn,r24
 1170 0120 82E0      		ldi r24,lo8(2)
 1171               	.LVL59:
 1172               	.L95:
 1173 0122 0E94 0000 		call uip_process
 1174               	.LSM151:
 1175 0126 8091 0000 		lds r24,uip_len
 1176 012a 9091 0000 		lds r25,(uip_len)+1
 1177 012e 892B      		or r24,r25
 1178 0130 01F0      		breq .L85
 1179               	.LSM152:
 1180 0132 0E94 0000 		call network_send
 1181               	.L85:
 1182               	.LBE88:
 1183               	.LSM153:
 1184 0136 0E94 0000 		call uart1_getc
 1185               	.LSM154:
 1186 013a 11E0      		ldi r17,lo8(1)
 1187 013c 00C0      		rjmp .L86
 1188               	.LVL60:
 1189               	.L89:
 1190               	.LSM155:
 1191 013e 8132      		cpi r24,33
 1192 0140 9105      		cpc r25,__zero_reg__
 1193 0142 01F4      		brne .L87
 1194               	.LSM156:
 1195 0144 80E0      		ldi r24,lo8(.LC23)
 1196 0146 90E0      		ldi r25,hi8(.LC23)
 1197               	.LVL61:
 1198 0148 0E94 0000 		call uart1_puts
 1199               	.LSM157:
 1200 014c 1093 0000 		sts DebugMode,r17
 1201 0150 00C0      		rjmp .L88
 1202               	.LVL62:
 1203               	.L87:
 1204               	.LSM158:
 1205 0152 8034      		cpi r24,64
 1206 0154 9105      		cpc r25,__zero_reg__
 1207 0156 01F4      		brne .L88
 1208               	.LSM159:
 1209 0158 80E0      		ldi r24,lo8(.LC24)
 1210 015a 90E0      		ldi r25,hi8(.LC24)
 1211               	.LVL63:
 1212 015c 0E94 0000 		call uart1_puts
 1213               	.LSM160:
 1214 0160 1092 0000 		sts DebugMode,__zero_reg__
 1215               	.LVL64:
 1216               	.L88:
 1217               	.LSM161:
 1218 0164 0E94 0000 		call uart1_getc
 1219               	.LVL65:
 1220               	.L86:
 1221               	.LSM162:
 1222 0168 E1E0      		ldi r30,hi8(256)
 1223 016a 8030      		cpi r24,lo8(256)
 1224 016c 9E07      		cpc r25,r30
 1225               	.LVL66:
 1226 016e 01F4      		brne .L89
 1227               	.L90:
 1228               	/* epilogue start */
 1229               	.LSM163:
 1230 0170 DF91      		pop r29
 1231 0172 CF91      		pop r28
 1232               	.LVL67:
 1233 0174 1F91      		pop r17
 1234 0176 0F91      		pop r16
 1235 0178 FF90      		pop r15
 1236 017a EF90      		pop r14
 1237               	.LVL68:
 1238 017c DF90      		pop r13
 1239 017e CF90      		pop r12
 1240 0180 0895      		ret
 1241               	.LFE51:
 1243               		.data
 1244               	.LC25:
 1245 01e3 47        		.ascii	"G"
 1246 01e4 4554 202F 		.string	"ET / HTTP/1.1\r\nHost: www.example.com\r\nConnection: Keep-Alive\r\n\r\n"
 1246      2048 5454 
 1246      502F 312E 
 1246      310D 0A48 
 1246      6F73 743A 
 1247               		.section	.text.SendGET,"ax",@progbits
 1248               	.global	SendGET
 1250               	SendGET:
 1251               	.LFB50:
 1252               	.LSM164:
 1253               	/* prologue: function */
 1254               	/* frame size = 0 */
 1255               	.LSM165:
 1256 0000 80E0      		ldi r24,lo8(.LC25)
 1257 0002 90E0      		ldi r25,hi8(.LC25)
 1258 0004 61E4      		ldi r22,lo8(65)
 1259 0006 70E0      		ldi r23,hi8(65)
 1260 0008 0E94 0000 		call uip_send
 1261               	/* epilogue start */
 1262               	.LSM166:
 1263 000c 0895      		ret
 1264               	.LFE50:
 1266               		.data
 1267               	.LC26:
 1268 0225 4E65 7744 		.string	"NewData "
 1268      6174 6120 
 1268      00
 1269               	.LC27:
 1270 022e 4163 6B65 		.string	"Acked "
 1270      6420 00
 1271               	.LC28:
 1272 0235 436F 6E6E 		.string	"Connected "
 1272      6563 7465 
 1272      6420 00
 1273               	.LC29:
 1274 0240 436C 6F73 		.string	"Closed - Reconnecting..."
 1274      6564 202D 
 1274      2052 6563 
 1274      6F6E 6E65 
 1274      6374 696E 
 1275               	.LC30:
 1276 0259 4162 6F72 		.string	"Aborted - Reconnecting... "
 1276      7465 6420 
 1276      2D20 5265 
 1276      636F 6E6E 
 1276      6563 7469 
 1277               	.LC31:
 1278 0274 5469 6D65 		.string	"Timeout - Reconnecting..."
 1278      6F75 7420 
 1278      2D20 5265 
 1278      636F 6E6E 
 1278      6563 7469 
 1279               	.LC32:
 1280 028e 0D0A 5365 		.string	"\r\nSending GET\r\n"
 1280      6E64 696E 
 1280      6720 4745 
 1280      540D 0A00 
 1281               	.LC33:
 1282 029e 0D0A 5265 		.string	"\r\nRetransmit GET\r\n"
 1282      7472 616E 
 1282      736D 6974 
 1282      2047 4554 
 1282      0D0A 00
 1283               		.section	.text.TCPCallback,"ax",@progbits
 1284               	.global	TCPCallback
 1286               	TCPCallback:
 1287               	.LFB49:
 1288               	.LSM167:
 1289               	/* prologue: function */
 1290               	/* frame size = 0 */
 1291               	.LSM168:
 1292 0000 8AE2      		ldi r24,lo8(42)
 1293 0002 0E94 0000 		call DebugChar
 1294               	.LSM169:
 1295 0006 8091 0000 		lds r24,uip_flags
 1296 000a 81FF      		sbrs r24,1
 1297 000c 00C0      		rjmp .L99
 1298               	.LSM170:
 1299 000e 80E0      		ldi r24,lo8(.LC26)
 1300 0010 90E0      		ldi r25,hi8(.LC26)
 1301 0012 0E94 0000 		call Debug
 1302               	.L99:
 1303               	.LSM171:
 1304 0016 8091 0000 		lds r24,uip_flags
 1305 001a 80FF      		sbrs r24,0
 1306 001c 00C0      		rjmp .L100
 1307               	.LSM172:
 1308 001e 80E0      		ldi r24,lo8(.LC27)
 1309 0020 90E0      		ldi r25,hi8(.LC27)
 1310 0022 0E94 0000 		call Debug
 1311               	.L100:
 1312               	.LSM173:
 1313 0026 8091 0000 		lds r24,uip_flags
 1314 002a 86FF      		sbrs r24,6
 1315 002c 00C0      		rjmp .L101
 1316               	.LSM174:
 1317 002e 80E0      		ldi r24,lo8(.LC28)
 1318 0030 90E0      		ldi r25,hi8(.LC28)
 1319 0032 0E94 0000 		call Debug
 1320               	.L101:
 1321               	.LSM175:
 1322 0036 8091 0000 		lds r24,uip_flags
 1323 003a 84FF      		sbrs r24,4
 1324 003c 00C0      		rjmp .L102
 1325               	.LSM176:
 1326 003e 80E0      		ldi r24,lo8(.LC29)
 1327 0040 90E0      		ldi r25,hi8(.LC29)
 1328 0042 0E94 0000 		call Debug
 1329 0046 80E1      		ldi r24,lo8(10000)
 1330 0048 97E2      		ldi r25,hi8(10000)
 1331               	.LVL69:
 1332               	.LBB89:
 1333               	.LBB90:
 1334               	.LBB91:
 1335               	.LBB92:
 1336               	.LSM177:
 1337 004a 28EC      		ldi r18,lo8(200)
 1338 004c 30E0      		ldi r19,hi8(200)
 1339               	.L103:
 1340 004e F901      		movw r30,r18
 1341               	.LVL70:
 1342               	/* #APP */
 1343               	 ;  105 "c:/program files/winavr-20090313/lib/gcc/../../avr/include/util/delay_basic.h" 1
 1344 0050 3197      		1: sbiw r30,1
 1345 0052 01F4      		brne 1b
 1346               	 ;  0 "" 2
 1347               	/* #NOAPP */
 1348               	.LBE92:
 1349               	.LBE91:
 1350               	.LSM178:
 1351 0054 0197      		sbiw r24,1
 1352               	.LSM179:
 1353 0056 01F4      		brne .L103
 1354               	.LBE90:
 1355               	.LBE89:
 1356               	.LSM180:
 1357 0058 83E0      		ldi r24,lo8(3)
 1358               	.LVL71:
 1359 005a 8093 0000 		sts ConnectedState,r24
 1360               	.L102:
 1361               	.LSM181:
 1362 005e 8091 0000 		lds r24,uip_flags
 1363 0062 85FF      		sbrs r24,5
 1364 0064 00C0      		rjmp .L104
 1365               	.LSM182:
 1366 0066 80E0      		ldi r24,lo8(.LC30)
 1367 0068 90E0      		ldi r25,hi8(.LC30)
 1368 006a 0E94 0000 		call Debug
 1369               	.LVL72:
 1370 006e 80E1      		ldi r24,lo8(10000)
 1371 0070 97E2      		ldi r25,hi8(10000)
 1372               	.LVL73:
 1373               	.LBB93:
 1374               	.LBB94:
 1375               	.LBB95:
 1376               	.LBB96:
 1377               	.LSM183:
 1378 0072 28EC      		ldi r18,lo8(200)
 1379 0074 30E0      		ldi r19,hi8(200)
 1380               	.L105:
 1381 0076 F901      		movw r30,r18
 1382               	.LVL74:
 1383               	/* #APP */
 1384               	 ;  105 "c:/program files/winavr-20090313/lib/gcc/../../avr/include/util/delay_basic.h" 1
 1385 0078 3197      		1: sbiw r30,1
 1386 007a 01F4      		brne 1b
 1387               	 ;  0 "" 2
 1388               	/* #NOAPP */
 1389               	.LBE96:
 1390               	.LBE95:
 1391               	.LSM184:
 1392 007c 0197      		sbiw r24,1
 1393               	.LSM185:
 1394 007e 01F4      		brne .L105
 1395               	.LBE94:
 1396               	.LBE93:
 1397               	.LSM186:
 1398 0080 83E0      		ldi r24,lo8(3)
 1399               	.LVL75:
 1400 0082 8093 0000 		sts ConnectedState,r24
 1401               	.LVL76:
 1402               	.L104:
 1403               	.LSM187:
 1404 0086 8091 0000 		lds r24,uip_flags
 1405 008a 87FF      		sbrs r24,7
 1406 008c 00C0      		rjmp .L106
 1407               	.LSM188:
 1408 008e 80E0      		ldi r24,lo8(.LC31)
 1409 0090 90E0      		ldi r25,hi8(.LC31)
 1410 0092 0E94 0000 		call Debug
 1411               	.LVL77:
 1412               	.LSM189:
 1413 0096 80E2      		ldi r24,lo8(32)
 1414 0098 8093 0000 		sts uip_flags,r24
 1415 009c 80E1      		ldi r24,lo8(10000)
 1416 009e 97E2      		ldi r25,hi8(10000)
 1417               	.LVL78:
 1418               	.LBB97:
 1419               	.LBB98:
 1420               	.LBB99:
 1421               	.LBB100:
 1422               	.LSM190:
 1423 00a0 28EC      		ldi r18,lo8(200)
 1424 00a2 30E0      		ldi r19,hi8(200)
 1425               	.L107:
 1426 00a4 F901      		movw r30,r18
 1427               	.LVL79:
 1428               	/* #APP */
 1429               	 ;  105 "c:/program files/winavr-20090313/lib/gcc/../../avr/include/util/delay_basic.h" 1
 1430 00a6 3197      		1: sbiw r30,1
 1431 00a8 01F4      		brne 1b
 1432               	 ;  0 "" 2
 1433               	/* #NOAPP */
 1434               	.LBE100:
 1435               	.LBE99:
 1436               	.LSM191:
 1437 00aa 0197      		sbiw r24,1
 1438               	.LSM192:
 1439 00ac 01F4      		brne .L107
 1440               	.LBE98:
 1441               	.LBE97:
 1442               	.LSM193:
 1443 00ae 83E0      		ldi r24,lo8(3)
 1444               	.LVL80:
 1445 00b0 8093 0000 		sts ConnectedState,r24
 1446               	.LVL81:
 1447               	.L106:
 1448               	.LSM194:
 1449 00b4 8091 0000 		lds r24,uip_flags
 1450 00b8 83FF      		sbrs r24,3
 1451 00ba 00C0      		rjmp .L108
 1452 00bc 8091 0000 		lds r24,TIME
 1453 00c0 9091 0000 		lds r25,(TIME)+1
 1454 00c4 895B      		subi r24,lo8(3001)
 1455 00c6 9B40      		sbci r25,hi8(3001)
 1456 00c8 00F0      		brlo .L108
 1457               	.LSM195:
 1458 00ca 1092 0000 		sts (TIME)+1,__zero_reg__
 1459 00ce 1092 0000 		sts TIME,__zero_reg__
 1460               	.LSM196:
 1461 00d2 80E0      		ldi r24,lo8(.LC32)
 1462 00d4 90E0      		ldi r25,hi8(.LC32)
 1463 00d6 0E94 0000 		call Debug
 1464               	.LVL82:
 1465               	.LSM197:
 1466 00da 0E94 0000 		call SendGET
 1467               	.LVL83:
 1468               	.L108:
 1469               	.LSM198:
 1470 00de 8091 0000 		lds r24,uip_flags
 1471 00e2 82FF      		sbrs r24,2
 1472 00e4 00C0      		rjmp .L109
 1473               	.LSM199:
 1474 00e6 80E0      		ldi r24,lo8(.LC33)
 1475 00e8 90E0      		ldi r25,hi8(.LC33)
 1476 00ea 0E94 0000 		call Debug
 1477               	.LVL84:
 1478               	.LSM200:
 1479 00ee 0E94 0000 		call SendGET
 1480               	.LVL85:
 1481               	.L109:
 1482               	.LSM201:
 1483 00f2 8091 0000 		lds r24,uip_flags
 1484 00f6 81FF      		sbrs r24,1
 1485 00f8 00C0      		rjmp .L110
 1486               	.LSM202:
 1487 00fa 6091 0000 		lds r22,uip_len
 1488 00fe 7091 0000 		lds r23,(uip_len)+1
 1489 0102 8091 0000 		lds r24,uip_appdata
 1490 0106 9091 0000 		lds r25,(uip_appdata)+1
 1491 010a 0E94 0000 		call device_enqueue
 1492               	.LVL86:
 1493               	.L110:
 1494               	.LSM203:
 1495 010e 9091 0000 		lds r25,uip_flags
 1496 0112 93FF      		sbrs r25,3
 1497 0114 00C0      		rjmp .L112
 1498 0116 E091 0000 		lds r30,ThisConn
 1499 011a F091 0000 		lds r31,(ThisConn)+1
 1500               	.LVL87:
 1501 011e 818D      		ldd r24,Z+25
 1502 0120 84FF      		sbrs r24,4
 1503 0122 00C0      		rjmp .L112
 1504               	.LSM204:
 1505 0124 9260      		ori r25,lo8(2)
 1506 0126 9093 0000 		sts uip_flags,r25
 1507 012a E091 0000 		lds r30,uip_conn
 1508 012e F091 0000 		lds r31,(uip_conn)+1
 1509 0132 818D      		ldd r24,Z+25
 1510 0134 8F7E      		andi r24,lo8(-17)
 1511 0136 818F      		std Z+25,r24
 1512               	.LVL88:
 1513               	.L112:
 1514 0138 0895      		ret
 1515               	.LFE49:
 1517               		.data
 1518               	.LC34:
 1519 02b1 0D0A 5553 		.string	"\r\nUSB Modem - Press space bar to debug\r\n"
 1519      4220 4D6F 
 1519      6465 6D20 
 1519      2D20 5072 
 1519      6573 7320 
 1520               	.LC35:
 1521 02da 0D0A 4465 		.string	"\r\nDebugging\r\n"
 1521      6275 6767 
 1521      696E 670D 
 1521      0A00 
 1522               	.LC36:
 1523 02e8 496E 6974 		.string	"Initialise TCP Stack\r\n"
 1523      6961 6C69 
 1523      7365 2054 
 1523      4350 2053 
 1523      7461 636B 
 1524               	.LC37:
 1525 02ff 436F 6E6E 		.string	"Connected to host\r\n"
 1525      6563 7465 
 1525      6420 746F 
 1525      2068 6F73 
 1525      740D 0A00 
 1526               	.LC38:
 1527 0313 4661 696C 		.string	"Failed to Connect\r\n"
 1527      6564 2074 
 1527      6F20 436F 
 1527      6E6E 6563 
 1527      740D 0A00 
 1528               	.LC39:
 1529 0327 4D61 7869 		.string	"Maximum Segment Size: 0x"
 1529      6D75 6D20 
 1529      5365 676D 
 1529      656E 7420 
 1529      5369 7A65 
 1530               	.LC40:
 1531 0340 3078 00   		.string	"0x"
 1532               		.section	.text.main,"ax",@progbits
 1533               	.global	main
 1535               	main:
 1536               	.LFB48:
 1537               	.LSM205:
 1538 0000 2F92      		push r2
 1539 0002 3F92      		push r3
 1540 0004 4F92      		push r4
 1541 0006 5F92      		push r5
 1542 0008 6F92      		push r6
 1543 000a 7F92      		push r7
 1544 000c 8F92      		push r8
 1545 000e 9F92      		push r9
 1546 0010 AF92      		push r10
 1547 0012 BF92      		push r11
 1548 0014 CF92      		push r12
 1549 0016 DF92      		push r13
 1550 0018 EF92      		push r14
 1551 001a FF92      		push r15
 1552 001c 0F93      		push r16
 1553 001e 1F93      		push r17
 1554 0020 CF93      		push r28
 1555 0022 DF93      		push r29
 1556               	/* prologue: function */
 1557               	/* frame size = 0 */
 1558               	.LBB101:
 1559               	.LSM206:
 1560 0024 80E0      		ldi r24,lo8(0)
 1561 0026 90E0      		ldi r25,hi8(0)
 1562 0028 20E8      		ldi r18,lo8(-128)
 1563               	/* #APP */
 1564               	 ;  54 "USBModem.c" 1
 1565 002a 0FB6      		in __tmp_reg__,__SREG__
 1566 002c F894      		cli
 1567 002e 2093 6100 		sts 97, r18
 1568 0032 8093 6100 		sts 97, r24
 1569 0036 0FBE      		out __SREG__, __tmp_reg__
 1570               	 ;  0 "" 2
 1571               	/* #NOAPP */
 1572               	.LBE101:
 1573               	.LSM207:
 1574 0038 89E1      		ldi r24,lo8(25)
 1575 003a 90E0      		ldi r25,hi8(25)
 1576 003c 0E94 0000 		call uart1_init
 1577               	.LSM208:
 1578 0040 0E94 0000 		call modem_init
 1579               	.LBB102:
 1580               	.LBB103:
 1581               	.LSM209:
 1582 0044 8AB1      		in r24,42-32
 1583 0046 806F      		ori r24,lo8(-16)
 1584 0048 8AB9      		out 42-32,r24
 1585               	.LSM210:
 1586 004a 8BB1      		in r24,43-32
 1587 004c 8F70      		andi r24,lo8(15)
 1588 004e 8BB9      		out 43-32,r24
 1589               	.LBE103:
 1590               	.LBE102:
 1591               	.LBB104:
 1592               	.LBB105:
 1593               	.LSM211:
 1594 0050 8BB1      		in r24,43-32
 1595 0052 8F70      		andi r24,lo8(15)
 1596 0054 8066      		ori r24,lo8(96)
 1597 0056 8BB9      		out 43-32,r24
 1598 0058 88E8      		ldi r24,lo8(5000)
 1599 005a 93E1      		ldi r25,hi8(5000)
 1600               	.LVL89:
 1601               	.LBE105:
 1602               	.LBE104:
 1603               	.LBB106:
 1604               	.LBB107:
 1605               	.LBB108:
 1606               	.LBB109:
 1607               	.LSM212:
 1608 005c 28EC      		ldi r18,lo8(200)
 1609 005e 30E0      		ldi r19,hi8(200)
 1610               	.L117:
 1611 0060 F901      		movw r30,r18
 1612               	.LVL90:
 1613               	/* #APP */
 1614               	 ;  105 "c:/program files/winavr-20090313/lib/gcc/../../avr/include/util/delay_basic.h" 1
 1615 0062 3197      		1: sbiw r30,1
 1616 0064 01F4      		brne 1b
 1617               	 ;  0 "" 2
 1618               	/* #NOAPP */
 1619               	.LBE109:
 1620               	.LBE108:
 1621               	.LSM213:
 1622 0066 0197      		sbiw r24,1
 1623               	.LSM214:
 1624 0068 01F4      		brne .L117
 1625               	.LBE107:
 1626               	.LBE106:
 1627               	.LBB110:
 1628               	.LBB111:
 1629               	.LSM215:
 1630 006a 8BB1      		in r24,43-32
 1631               	.LVL91:
 1632 006c 8F70      		andi r24,lo8(15)
 1633 006e 8069      		ori r24,lo8(-112)
 1634 0070 8BB9      		out 43-32,r24
 1635 0072 88E8      		ldi r24,lo8(5000)
 1636 0074 93E1      		ldi r25,hi8(5000)
 1637               	.LVL92:
 1638               	.LBE111:
 1639               	.LBE110:
 1640               	.LBB112:
 1641               	.LBB113:
 1642               	.LBB114:
 1643               	.LBB115:
 1644               	.LSM216:
 1645 0076 28EC      		ldi r18,lo8(200)
 1646 0078 30E0      		ldi r19,hi8(200)
 1647               	.L118:
 1648 007a F901      		movw r30,r18
 1649               	.LVL93:
 1650               	/* #APP */
 1651               	 ;  105 "c:/program files/winavr-20090313/lib/gcc/../../avr/include/util/delay_basic.h" 1
 1652 007c 3197      		1: sbiw r30,1
 1653 007e 01F4      		brne 1b
 1654               	 ;  0 "" 2
 1655               	/* #NOAPP */
 1656               	.LBE115:
 1657               	.LBE114:
 1658               	.LSM217:
 1659 0080 0197      		sbiw r24,1
 1660               	.LSM218:
 1661 0082 01F4      		brne .L118
 1662               	.LBE113:
 1663               	.LBE112:
 1664               	.LBB116:
 1665               	.LBB117:
 1666               	.LSM219:
 1667 0084 8BB1      		in r24,43-32
 1668               	.LVL94:
 1669 0086 8F70      		andi r24,lo8(15)
 1670 0088 8066      		ori r24,lo8(96)
 1671 008a 8BB9      		out 43-32,r24
 1672               	.LBE117:
 1673               	.LBE116:
 1674               	.LSM220:
 1675 008c 0E94 0000 		call USB_Init
 1676               	.LVL95:
 1677               	.LSM221:
 1678 0090 80E0      		ldi r24,lo8(.LC34)
 1679 0092 90E0      		ldi r25,hi8(.LC34)
 1680 0094 0E94 0000 		call uart1_puts
 1681 0098 C0E0      		ldi r28,lo8(0)
 1682 009a D0E0      		ldi r29,hi8(0)
 1683               	.LVL96:
 1684               	.LBB118:
 1685               	.LBB119:
 1686               	.LBB120:
 1687               	.LBB121:
 1688               	.LBB122:
 1689               	.LSM222:
 1690 009c 08EC      		ldi r16,lo8(200)
 1691 009e 10E0      		ldi r17,hi8(200)
 1692               	.LVL97:
 1693               	.L122:
 1694               	.LBE122:
 1695               	.LBE121:
 1696               	.LBE120:
 1697               	.LBE119:
 1698               	.LSM223:
 1699 00a0 8EE2      		ldi r24,lo8(46)
 1700               	.LVL98:
 1701 00a2 0E94 0000 		call uart1_putc
 1702               	.LVL99:
 1703               	.LSM224:
 1704 00a6 0E94 0000 		call uart1_getc
 1705 00aa 8097      		sbiw r24,32
 1706 00ac 01F4      		brne .L119
 1707               	.LSM225:
 1708 00ae 81E0      		ldi r24,lo8(1)
 1709 00b0 8093 0000 		sts DebugMode,r24
 1710               	.LSM226:
 1711 00b4 80E0      		ldi r24,lo8(.LC35)
 1712 00b6 90E0      		ldi r25,hi8(.LC35)
 1713 00b8 0E94 0000 		call uart1_puts
 1714 00bc 00C0      		rjmp .L120
 1715               	.L119:
 1716               	.LSM227:
 1717 00be 88E8      		ldi r24,lo8(5000)
 1718 00c0 93E1      		ldi r25,hi8(5000)
 1719               	.LVL100:
 1720               	.L121:
 1721               	.LBB126:
 1722               	.LBB125:
 1723               	.LBB124:
 1724               	.LBB123:
 1725               	.LSM228:
 1726 00c2 F801      		movw r30,r16
 1727               	.LVL101:
 1728               	/* #APP */
 1729               	 ;  105 "c:/program files/winavr-20090313/lib/gcc/../../avr/include/util/delay_basic.h" 1
 1730 00c4 3197      		1: sbiw r30,1
 1731 00c6 01F4      		brne 1b
 1732               	 ;  0 "" 2
 1733               	/* #NOAPP */
 1734               	.LBE123:
 1735               	.LBE124:
 1736               	.LSM229:
 1737 00c8 0197      		sbiw r24,1
 1738               	.LSM230:
 1739 00ca 01F4      		brne .L121
 1740               	.LBE125:
 1741               	.LBE126:
 1742               	.LSM231:
 1743 00cc 2196      		adiw r28,1
 1744 00ce C630      		cpi r28,6
 1745 00d0 D105      		cpc r29,__zero_reg__
 1746 00d2 01F4      		brne .L122
 1747               	.L120:
 1748               	.LBE118:
 1749               	.LSM232:
 1750 00d4 80E0      		ldi r24,lo8(.LC6)
 1751 00d6 90E0      		ldi r25,hi8(.LC6)
 1752               	.LVL102:
 1753 00d8 0E94 0000 		call uart1_puts
 1754               	.LVL103:
 1755               	.LSM233:
 1756 00dc 8DE0      		ldi r24,lo8(13)
 1757 00de 8093 8100 		sts 129,r24
 1758               	.LSM234:
 1759 00e2 8EE4      		ldi r24,lo8(78)
 1760 00e4 90E0      		ldi r25,hi8(78)
 1761 00e6 9093 8900 		sts (136)+1,r25
 1762 00ea 8093 8800 		sts 136,r24
 1763               	.LSM235:
 1764 00ee 82E0      		ldi r24,lo8(2)
 1765 00f0 8093 6F00 		sts 111,r24
 1766               	.LBB127:
 1767               	.LBB128:
 1768               	.LSM236:
 1769 00f4 8BB1      		in r24,43-32
 1770 00f6 8F70      		andi r24,lo8(15)
 1771 00f8 8BB9      		out 43-32,r24
 1772               	.LBE128:
 1773               	.LBE127:
 1774               	.LSM237:
 1775               	/* #APP */
 1776               	 ;  98 "USBModem.c" 1
 1777 00fa A895      		wdr
 1778               	 ;  0 "" 2
 1779               	.LSM238:
 1780               	/* #NOAPP */
 1781 00fc 88E1      		ldi r24,lo8(24)
 1782 00fe 8093 6000 		sts 96,r24
 1783               	.LSM239:
 1784 0102 81E6      		ldi r24,lo8(97)
 1785 0104 8093 6000 		sts 96,r24
 1786               	.LSM240:
 1787 0108 1092 0000 		sts (TIME)+1,__zero_reg__
 1788 010c 1092 0000 		sts TIME,__zero_reg__
 1789               	.LSM241:
 1790 0110 F0E0      		ldi r31,lo8(LocalIPAddress)
 1791 0112 CF2E      		mov r12,r31
 1792 0114 F0E0      		ldi r31,hi8(LocalIPAddress)
 1793 0116 DF2E      		mov r13,r31
 1794 0118 E2E0      		ldi r30,lo8(2)
 1795 011a 2E2E      		mov r2,r30
 1796 011c 312C      		mov r3,__zero_reg__
 1797 011e 2C0C      		add r2,r12
 1798 0120 3D1C      		adc r3,r13
 1799               	.LSM242:
 1800 0122 70E0      		ldi r23,lo8(uip_hostaddr)
 1801 0124 E72E      		mov r14,r23
 1802 0126 70E0      		ldi r23,hi8(uip_hostaddr)
 1803 0128 F72E      		mov r15,r23
 1804 012a 62E0      		ldi r22,lo8(2)
 1805 012c 462E      		mov r4,r22
 1806 012e 512C      		mov r5,__zero_reg__
 1807 0130 4E0C      		add r4,r14
 1808 0132 5F1C      		adc r5,r15
 1809               	.LSM243:
 1810 0134 50EC      		ldi r21,lo8(192)
 1811 0136 652E      		mov r6,r21
 1812 0138 712C      		mov r7,__zero_reg__
 1813 013a 40E2      		ldi r20,lo8(2592)
 1814 013c 842E      		mov r8,r20
 1815 013e 4AE0      		ldi r20,hi8(2592)
 1816 0140 942E      		mov r9,r20
 1817               	.LSM244:
 1818 0142 30ED      		ldi r19,lo8(2000)
 1819 0144 A32E      		mov r10,r19
 1820 0146 37E0      		ldi r19,hi8(2000)
 1821 0148 B32E      		mov r11,r19
 1822               	.L139:
 1823               	.LSM245:
 1824 014a 0E94 0000 		call USB_USBTask
 1825               	.LSM246:
 1826 014e 0E94 0000 		call CDC_Host_Task
 1827               	.LSM247:
 1828 0152 0E94 0000 		call SendDataToAndFromModem
 1829               	.LSM248:
 1830 0156 8091 0000 		lds r24,ConnectedState
 1831 015a 8230      		cpi r24,lo8(2)
 1832 015c 01F0      		breq .L126
 1833 015e 8330      		cpi r24,lo8(3)
 1834 0160 00F4      		brsh .L129
 1835 0162 8823      		tst r24
 1836 0164 01F0      		breq .L124
 1837 0166 8130      		cpi r24,lo8(1)
 1838 0168 01F4      		brne .L139
 1839 016a 00C0      		rjmp .L140
 1840               	.L129:
 1841 016c 8330      		cpi r24,lo8(3)
 1842 016e 01F4      		brne .+2
 1843 0170 00C0      		rjmp .L127
 1844 0172 8430      		cpi r24,lo8(4)
 1845 0174 01F4      		brne .L139
 1846 0176 00C0      		rjmp .L141
 1847               	.L124:
 1848               	.LSM249:
 1849 0178 0E94 0000 		call Dial
 1850 017c 00C0      		rjmp .L139
 1851               	.L140:
 1852               	.LSM250:
 1853 017e 0E94 0000 		call DoPPP
 1854 0182 00C0      		rjmp .L139
 1855               	.L126:
 1856               	.LSM251:
 1857 0184 80E0      		ldi r24,lo8(.LC36)
 1858 0186 90E0      		ldi r25,hi8(.LC36)
 1859 0188 0E94 0000 		call Debug
 1860               	.LSM252:
 1861 018c 0E94 0000 		call network_init
 1862               	.LSM253:
 1863 0190 0E94 0000 		call clock_init
 1864               	.LSM254:
 1865 0194 80E0      		ldi r24,lo8(periodic_timer)
 1866 0196 90E0      		ldi r25,hi8(periodic_timer)
 1867 0198 6FE0      		ldi r22,lo8(15)
 1868 019a 70E0      		ldi r23,hi8(15)
 1869 019c 0E94 0000 		call timer_set
 1870               	.LSM255:
 1871 01a0 0E94 0000 		call uip_init
 1872               	.LSM256:
 1873 01a4 1091 0000 		lds r17,IPAddr1
 1874 01a8 00E0      		ldi r16,lo8(0)
 1875 01aa 2091 0000 		lds r18,IPAddr2
 1876 01ae 30E0      		ldi r19,lo8(0)
 1877 01b0 202B      		or r18,r16
 1878 01b2 312B      		or r19,r17
 1879 01b4 3093 0000 		sts LocalIPAddress,r19
 1880 01b8 F601      		movw r30,r12
 1881 01ba 2183      		std Z+1,r18
 1882 01bc D091 0000 		lds r29,IPAddr3
 1883 01c0 C0E0      		ldi r28,lo8(0)
 1884               	.LVL104:
 1885 01c2 8091 0000 		lds r24,IPAddr4
 1886 01c6 90E0      		ldi r25,lo8(0)
 1887 01c8 8C2B      		or r24,r28
 1888 01ca 9D2B      		or r25,r29
 1889 01cc 9093 0000 		sts LocalIPAddress+2,r25
 1890 01d0 F101      		movw r30,r2
 1891 01d2 8183      		std Z+1,r24
 1892               	.LSM257:
 1893 01d4 3093 0000 		sts uip_hostaddr,r19
 1894 01d8 F701      		movw r30,r14
 1895 01da 2183      		std Z+1,r18
 1896 01dc 9093 0000 		sts uip_hostaddr+2,r25
 1897 01e0 F201      		movw r30,r4
 1898 01e2 8183      		std Z+1,r24
 1899               	.LSM258:
 1900 01e4 7092 0000 		sts (RemoteIPAddress)+1,r7
 1901 01e8 6092 0000 		sts RemoteIPAddress,r6
 1902 01ec 9092 0000 		sts (RemoteIPAddress+2)+1,r9
 1903 01f0 8092 0000 		sts RemoteIPAddress+2,r8
 1904               	.LSM259:
 1905 01f4 F3E0      		ldi r31,lo8(3)
 1906 01f6 F093 0000 		sts ConnectedState,r31
 1907               	.LSM260:
 1908 01fa B092 0000 		sts (TIME)+1,r11
 1909 01fe A092 0000 		sts TIME,r10
 1910 0202 00C0      		rjmp .L139
 1911               	.LVL105:
 1912               	.L127:
 1913               	.LSM261:
 1914 0204 8091 0000 		lds r24,TIME
 1915 0208 9091 0000 		lds r25,(TIME)+1
 1916 020c 895E      		subi r24,lo8(1001)
 1917 020e 9340      		sbci r25,hi8(1001)
 1918 0210 00F4      		brsh .+2
 1919 0212 00C0      		rjmp .L139
 1920               	.LSM262:
 1921 0214 1092 0000 		sts (TIME)+1,__zero_reg__
 1922 0218 1092 0000 		sts TIME,__zero_reg__
 1923               	.LSM263:
 1924 021c 80E0      		ldi r24,lo8(RemoteIPAddress)
 1925 021e 90E0      		ldi r25,hi8(RemoteIPAddress)
 1926 0220 60E0      		ldi r22,lo8(20480)
 1927 0222 70E5      		ldi r23,hi8(20480)
 1928 0224 0E94 0000 		call uip_connect
 1929 0228 9093 0000 		sts (ThisConn)+1,r25
 1930 022c 8093 0000 		sts ThisConn,r24
 1931               	.LSM264:
 1932 0230 892B      		or r24,r25
 1933 0232 01F0      		breq .L130
 1934               	.LSM265:
 1935 0234 80E0      		ldi r24,lo8(.LC37)
 1936 0236 90E0      		ldi r25,hi8(.LC37)
 1937 0238 0E94 0000 		call Debug
 1938               	.LSM266:
 1939 023c 84E0      		ldi r24,lo8(4)
 1940 023e 8093 0000 		sts ConnectedState,r24
 1941               	.LSM267:
 1942 0242 E9EB      		ldi r30,lo8(3001)
 1943 0244 FBE0      		ldi r31,hi8(3001)
 1944 0246 F093 0000 		sts (TIME)+1,r31
 1945 024a E093 0000 		sts TIME,r30
 1946 024e 00C0      		rjmp .L131
 1947               	.L130:
 1948               	.LSM268:
 1949 0250 80E0      		ldi r24,lo8(.LC38)
 1950 0252 90E0      		ldi r25,hi8(.LC38)
 1951 0254 0E94 0000 		call Debug
 1952               	.L131:
 1953               	.LSM269:
 1954 0258 80E0      		ldi r24,lo8(.LC39)
 1955 025a 90E0      		ldi r25,hi8(.LC39)
 1956 025c 0E94 0000 		call Debug
 1957 0260 E091 0000 		lds r30,uip_conn
 1958 0264 F091 0000 		lds r31,(uip_conn)+1
 1959 0268 8389      		ldd r24,Z+19
 1960 026a 0E94 0000 		call PrintHex
 1961               	.LSM270:
 1962 026e 80E0      		ldi r24,lo8(.LC40)
 1963 0270 90E0      		ldi r25,hi8(.LC40)
 1964 0272 0E94 0000 		call Debug
 1965 0276 E091 0000 		lds r30,uip_conn
 1966 027a F091 0000 		lds r31,(uip_conn)+1
 1967 027e 8289      		ldd r24,Z+18
 1968 0280 0E94 0000 		call PrintHex
 1969               	.LSM271:
 1970 0284 80E0      		ldi r24,lo8(.LC6)
 1971 0286 90E0      		ldi r25,hi8(.LC6)
 1972 0288 0E94 0000 		call Debug
 1973 028c 00C0      		rjmp .L139
 1974               	.L141:
 1975               	.LSM272:
 1976 028e 0E94 0000 		call TCPIPTask
 1977 0292 00C0      		rjmp .L139
 1978               	.LFE48:
 1980               	.global	ConnectedState
 1981               	.global	ConnectedState
 1982               		.section .bss
 1985               	ConnectedState:
 1986 0000 00        		.skip 1,0
 1987               	.global	DebugMode
 1988               	.global	DebugMode
 1991               	DebugMode:
 1992 0001 00        		.skip 1,0
 1993               	.global	WatchdogTicks
 1994               	.global	WatchdogTicks
 1997               	WatchdogTicks:
 1998 0002 00        		.skip 1,0
 1999               	.global	DialSteps
 2000               	.global	DialSteps
 2003               	DialSteps:
 2004 0003 00        		.skip 1,0
 2005               	.global	DialCommands
 2006               		.data
 2007               	.LC41:
 2008 0343 4154 0D0A 		.string	"AT\r\n"
 2008      00
 2009               	.LC42:
 2010 0348 4154 2646 		.string	"AT&F\r\n"
 2010      0D0A 00
 2011               	.LC43:
 2012 034f 4154 2B43 		.string	"AT+CPMS=\"SM\",\"SM\",\"\"\r\n"
 2012      504D 533D 
 2012      2253 4D22 
 2012      2C22 534D 
 2012      222C 2222 
 2013               	.LC44:
 2014 0366 4154 5130 		.string	"ATQ0 V1 E1 S0=0 &C1 &D2 +FCLASS=0\r\n"
 2014      2056 3120 
 2014      4531 2053 
 2014      303D 3020 
 2014      2643 3120 
 2015               	.LC45:
 2016 038a 4154 2B43 		.string	"AT+CGDCONT=1,\"IP\",\"3services\",,0,0\r\n"
 2016      4744 434F 
 2016      4E54 3D31 
 2016      2C22 4950 
 2016      222C 2233 
 2017               	.LC46:
 2018 03af 4154 4454 		.string	"ATDT*99#\r\n"
 2018      2A39 3923 
 2018      0D0A 00
 2021               	DialCommands:
 2022 03ba 0000      		.word	.LC41
 2023 03bc 0000      		.word	.LC42
 2024 03be 0000      		.word	.LC43
 2025 03c0 0000      		.word	.LC44
 2026 03c2 0000      		.word	.LC45
 2027 03c4 0000      		.word	.LC46
 2028 03c6 0000      		.word	.LC17
 2031               	C.44.3092:
 2032 03c8 00        		.byte	0
 2033 03c9 09        		.byte	9
 2034 03ca 0100      		.word	1
 2035 03cc 0000      		.word	0
 2036 03ce 0000      		.word	0
 2037               		.comm TIME,2,1
 2038               		.comm IPAddr1,1,1
 2039               		.comm IPAddr2,1,1
 2040               		.comm IPAddr3,1,1
 2041               		.comm IPAddr4,1,1
 2042               		.comm ThisConn,2,1
 2043               		.comm LocalIPAddress,4,1
 2044               		.comm RemoteIPAddress,4,1
 2045               		.comm periodic_timer,4,1
 2222               	.Letext0:
DEFINED SYMBOLS
                            *ABS*:00000000 USBModem.c
C:\Users\Mike\AppData\Local\Temp/ccvfl8Fr.s:2      *ABS*:0000003f __SREG__
C:\Users\Mike\AppData\Local\Temp/ccvfl8Fr.s:3      *ABS*:0000003e __SP_H__
C:\Users\Mike\AppData\Local\Temp/ccvfl8Fr.s:4      *ABS*:0000003d __SP_L__
C:\Users\Mike\AppData\Local\Temp/ccvfl8Fr.s:5      *ABS*:00000034 __CCP__
C:\Users\Mike\AppData\Local\Temp/ccvfl8Fr.s:6      *ABS*:00000000 __tmp_reg__
C:\Users\Mike\AppData\Local\Temp/ccvfl8Fr.s:7      *ABS*:00000001 __zero_reg__
C:\Users\Mike\AppData\Local\Temp/ccvfl8Fr.s:19     .text.__vector_17:00000000 __vector_17
                            *COM*:00000002 TIME
C:\Users\Mike\AppData\Local\Temp/ccvfl8Fr.s:51     .init3:00000000 wdt_init
C:\Users\Mike\AppData\Local\Temp/ccvfl8Fr.s:77     .text.device_queue_full:00000000 device_queue_full
C:\Users\Mike\AppData\Local\Temp/ccvfl8Fr.s:91     .text.Debug:00000000 Debug
C:\Users\Mike\AppData\Local\Temp/ccvfl8Fr.s:1991   .bss:00000001 DebugMode
C:\Users\Mike\AppData\Local\Temp/ccvfl8Fr.s:117    .text.EVENT_USB_Host_DeviceEnumerationFailed:00000000 EVENT_USB_Host_DeviceEnumerationFailed
C:\Users\Mike\AppData\Local\Temp/ccvfl8Fr.s:149    .text.EVENT_USB_Host_DeviceEnumerationComplete:00000000 EVENT_USB_Host_DeviceEnumerationComplete
C:\Users\Mike\AppData\Local\Temp/ccvfl8Fr.s:178    .text.EVENT_USB_Host_DeviceUnattached:00000000 EVENT_USB_Host_DeviceUnattached
C:\Users\Mike\AppData\Local\Temp/ccvfl8Fr.s:1985   .bss:00000000 ConnectedState
C:\Users\Mike\AppData\Local\Temp/ccvfl8Fr.s:209    .text.EVENT_USB_Host_DeviceAttached:00000000 EVENT_USB_Host_DeviceAttached
C:\Users\Mike\AppData\Local\Temp/ccvfl8Fr.s:238    .text.__vector_12:00000000 __vector_12
C:\Users\Mike\AppData\Local\Temp/ccvfl8Fr.s:1997   .bss:00000002 WatchdogTicks
C:\Users\Mike\AppData\Local\Temp/ccvfl8Fr.s:302    .text.DebugChar:00000000 DebugChar
C:\Users\Mike\AppData\Local\Temp/ccvfl8Fr.s:325    .text.PrintHex:00000000 PrintHex
C:\Users\Mike\AppData\Local\Temp/ccvfl8Fr.s:390    .text.device_enqueue:00000000 device_enqueue
C:\Users\Mike\AppData\Local\Temp/ccvfl8Fr.s:457    .text.SendDataToAndFromModem:00000000 SendDataToAndFromModem
C:\Users\Mike\AppData\Local\Temp/ccvfl8Fr.s:732    .text.CDC_Host_Task:00000000 CDC_Host_Task
C:\Users\Mike\AppData\Local\Temp/ccvfl8Fr.s:2031   .data:000003c8 C.44.3092
C:\Users\Mike\AppData\Local\Temp/ccvfl8Fr.s:842    .text.EVENT_USB_Host_HostError:00000000 EVENT_USB_Host_HostError
C:\Users\Mike\AppData\Local\Temp/ccvfl8Fr.s:878    .text.Dial:00000000 Dial
C:\Users\Mike\AppData\Local\Temp/ccvfl8Fr.s:2003   .bss:00000003 DialSteps
C:\Users\Mike\AppData\Local\Temp/ccvfl8Fr.s:2021   .data:000003ba DialCommands
C:\Users\Mike\AppData\Local\Temp/ccvfl8Fr.s:1000   .text.TCPIPTask:00000000 TCPIPTask
                            *COM*:00000004 periodic_timer
C:\Users\Mike\AppData\Local\Temp/ccvfl8Fr.s:1250   .text.SendGET:00000000 SendGET
C:\Users\Mike\AppData\Local\Temp/ccvfl8Fr.s:1286   .text.TCPCallback:00000000 TCPCallback
                            *COM*:00000002 ThisConn
C:\Users\Mike\AppData\Local\Temp/ccvfl8Fr.s:1535   .text.main:00000000 main
                            *COM*:00000004 LocalIPAddress
                            *COM*:00000001 IPAddr1
                            *COM*:00000001 IPAddr2
                            *COM*:00000001 IPAddr3
                            *COM*:00000001 IPAddr4
                            *COM*:00000004 RemoteIPAddress

UNDEFINED SYMBOLS
uart1_puts
uart1_putc
USB_HostState
modem_TxBufferEmpty
Pipe_WaitUntilReady
modem_getTxBuffer
Pipe_Write_Stream_LE
Pipe_Read_Stream_LE
modem_putRxBuffer
USB_ControlRequest
USB_Host_SendControlRequest
ProcessConfigurationDescriptor
USB_ShutDown
modem_getc
strcpy
strcmp
modem_puts
network_read
uip_len
uip_buf
timer_expired
timer_reset
uip_conns
uip_conn
uip_process
network_send
uart1_getc
uip_send
uip_flags
uip_appdata
uart1_init
modem_init
USB_Init
uip_hostaddr
USB_USBTask
DoPPP
network_init
clock_init
timer_set
uip_init
uip_connect
__do_copy_data
__do_clear_bss
